

Microchip Technology PIC18 LITE Macro Assembler V1.36 build -262312587 
                                                                                               Wed Mar 08 12:38:33 2017

Microchip Technology Omniscient Code Generator v1.36 (Free mode) build 201601150325
     1                           	processor	18F2550
     2                           	fnconf	rparam,??,?,0
     3                           	opt	pw 120
     4                           	opt	lm
     5                           	psect	smallconst,global,reloc=2,class=SMALLCONST,delta=1
     6                           	psect	cinit,global,reloc=2,class=CODE,delta=1
     7                           	psect	bssCOMRAM,global,class=COMRAM,space=1,delta=1
     8                           	psect	bssBANK0,global,class=BANK0,space=1,delta=1
     9                           	psect	bssBANK1,global,class=BANK1,space=1,delta=1
    10                           	psect	cstackBANK1,global,class=BANK1,space=1,delta=1
    11                           	psect	cstackBANK0,global,class=BANK0,space=1,delta=1
    12                           	psect	cstackCOMRAM,global,class=COMRAM,space=1,delta=1
    13                           	psect	text0,global,reloc=2,class=CODE,delta=1
    14                           	psect	text1,global,reloc=2,class=CODE,delta=1
    15                           	psect	text2,global,reloc=2,class=CODE,delta=1
    16                           	psect	text3,global,reloc=2,class=CODE,delta=1
    17                           	psect	text4,global,reloc=2,class=CODE,delta=1
    18                           	psect	text5,global,reloc=2,class=CODE,delta=1
    19                           	psect	text6,global,reloc=2,class=CODE,delta=1
    20                           	psect	text7,global,reloc=2,class=CODE,delta=1
    21                           	psect	text8,global,reloc=2,class=CODE,delta=1
    22                           	psect	text9,global,reloc=2,class=CODE,delta=1
    23                           	psect	text10,global,reloc=2,class=CODE,delta=1
    24                           	psect	text11,global,reloc=2,class=CODE,delta=1
    25                           	psect	intcodelo,global,reloc=2,class=CODE,delta=1
    26                           	psect	intcode,global,reloc=2,class=CODE,delta=1
    27                           	psect	intcode_body,global,reloc=2,class=CODE,delta=1
    28                           	psect	text14,global,reloc=2,class=CODE,delta=1
    29                           	psect	text15,global,reloc=2,class=CODE,delta=1
    30                           	psect	text16,global,reloc=2,class=CODE,delta=1
    31                           	psect	text17,global,reloc=2,class=CODE,delta=1
    32                           	psect	text18,global,reloc=2,class=CODE,delta=1
    33                           	psect	text19,global,reloc=2,class=CODE,delta=1
    34                           	psect	text20,global,reloc=2,class=CODE,delta=1
    35                           	psect	text21,global,reloc=2,class=CODE,delta=1
    36                           	psect	text22,global,reloc=2,class=CODE,delta=1
    37                           	psect	text23,global,reloc=2,class=CODE,delta=1
    38                           	psect	text24,global,reloc=2,class=CODE,delta=1
    39                           	psect	text25,global,reloc=2,class=CODE,delta=1
    40                           	psect	text26,global,reloc=2,class=CODE,delta=1
    41                           	psect	text27,global,reloc=2,class=CODE,delta=1
    42                           	psect	text28,global,reloc=2,class=CODE,delta=1
    43                           	psect	text29,global,reloc=2,class=CODE,delta=1
    44                           	psect	text30,global,reloc=2,class=CODE,delta=1
    45                           	psect	text31,global,reloc=2,class=CODE,delta=1
    46                           	psect	text32,global,reloc=2,class=CODE,delta=1
    47                           	psect	text33,global,reloc=2,class=CODE,delta=1
    48                           	psect	text34,global,reloc=2,class=CODE,delta=1
    49                           	psect	text35,global,reloc=2,class=CODE,delta=1
    50                           	psect	text36,global,reloc=2,class=CODE,delta=1
    51                           	psect	text37,global,reloc=2,class=CODE,delta=1
    52                           	psect	text38,global,reloc=2,class=CODE,delta=1
    53                           	psect	text39,global,reloc=2,class=CODE,delta=1
    54                           	psect	text40,global,reloc=2,class=CODE,delta=1
    55                           	psect	text41,global,reloc=2,class=CODE,delta=1
    56                           	psect	text42,global,reloc=2,class=CODE,delta=1
    57                           	psect	text43,global,reloc=2,class=CODE,delta=1
    58                           	psect	text44,global,reloc=2,class=CODE,delta=1
    59                           	psect	intsave_regs,global,class=BIGRAM,space=1,delta=1
    60                           	psect	rparam,global,class=COMRAM,space=1,delta=1
    61                           	psect	temp,global,ovrld,common,class=COMRAM,space=1,delta=1
    62                           	dabs	1,0x400,48,_BDT
    63                           	dabs	1,0x500,64,_cdc_data_tx
    64                           	dabs	1,0x438,8,_CtrlTrfData
    65                           	dabs	1,0x430,8,_SetupPkt
    66                           	dabs	1,0x540,64,_cdc_data_rx
    67  0000                     
    68                           	psect	smallconst
    69  001100                     __psmallconst:
    70                           	opt stack 0
    71  001100  00                 	db	0
    72  001101                     _USB_SD_Ptr:
    73                           	opt stack 0
    74  001101  C6                 	db	low _sd000
    75  001102  11                 	db	high _sd000
    76  001103  4C                 	db	low _sd001
    77  001104  11                 	db	high _sd001
    78  001105  80                 	db	low _sd002
    79  001106  11                 	db	high _sd002
    80  001107                     __end_of_USB_SD_Ptr:
    81                           	opt stack 0
    82  001107                     _USB_CD_Ptr:
    83                           	opt stack 0
    84  001107  09                 	db	low _configDescriptor1
    85  001108  11                 	db	high _configDescriptor1
    86  001109                     __end_of_USB_CD_Ptr:
    87                           	opt stack 0
    88  001109                     _configDescriptor1:
    89                           	opt stack 0
    90  001109  09                 	db	9
    91  00110A  02                 	db	2
    92  00110B  43                 	db	67
    93  00110C  00                 	db	0
    94  00110D  02                 	db	2
    95  00110E  01                 	db	1
    96  00110F  00                 	db	0
    97  001110  C0                 	db	192
    98  001111  32                 	db	50
    99  001112  09                 	db	9
   100  001113  04                 	db	4
   101  001114  00                 	db	0
   102  001115  00                 	db	0
   103  001116  01                 	db	1
   104  001117  02                 	db	2
   105  001118  02                 	db	2
   106  001119  01                 	db	1
   107  00111A  00                 	db	0
   108  00111B  05                 	db	5
   109  00111C  24                 	db	36
   110  00111D  00                 	db	0
   111  00111E  10                 	db	16
   112  00111F  01                 	db	1
   113  001120  04                 	db	4
   114  001121  24                 	db	36
   115  001122  02                 	db	2
   116  001123  02                 	db	2
   117  001124  05                 	db	5
   118  001125  24                 	db	36
   119  001126  06                 	db	6
   120  001127  00                 	db	0
   121  001128  01                 	db	1
   122  001129  05                 	db	5
   123  00112A  24                 	db	36
   124  00112B  01                 	db	1
   125  00112C  00                 	db	0
   126  00112D  01                 	db	1
   127  00112E  07                 	db	7
   128  00112F  05                 	db	5
   129  001130  81                 	db	129
   130  001131  03                 	db	3
   131  001132  08                 	db	8
   132  001133  00                 	db	0
   133  001134  02                 	db	2
   134  001135  09                 	db	9
   135  001136  04                 	db	4
   136  001137  01                 	db	1
   137  001138  00                 	db	0
   138  001139  02                 	db	2
   139  00113A  0A                 	db	10
   140  00113B  00                 	db	0
   141  00113C  00                 	db	0
   142  00113D  00                 	db	0
   143  00113E  07                 	db	7
   144  00113F  05                 	db	5
   145  001140  02                 	db	2
   146  001141  02                 	db	2
   147  001142  40                 	db	64
   148  001143  00                 	db	0
   149  001144  00                 	db	0
   150  001145  07                 	db	7
   151  001146  05                 	db	5
   152  001147  82                 	db	130
   153  001148  02                 	db	2
   154  001149  40                 	db	64
   155  00114A  00                 	db	0
   156  00114B  00                 	db	0
   157  00114C                     __end_of_configDescriptor1:
   158                           	opt stack 0
   159  00114C                     _sd001:
   160                           	opt stack 0
   161  00114C  34                 	db	52
   162  00114D  03                 	db	3
   163  00114E  004D               	dw	77
   164  001150  0069               	dw	105
   165  001152  0063               	dw	99
   166  001154  0072               	dw	114
   167  001156  006F               	dw	111
   168  001158  0063               	dw	99
   169  00115A  0068               	dw	104
   170  00115C  0069               	dw	105
   171  00115E  0070               	dw	112
   172  001160  0020               	dw	32
   173  001162  0054               	dw	84
   174  001164  0065               	dw	101
   175  001166  0063               	dw	99
   176  001168  0068               	dw	104
   177  00116A  006E               	dw	110
   178  00116C  006F               	dw	111
   179  00116E  006C               	dw	108
   180  001170  006F               	dw	111
   181  001172  0067               	dw	103
   182  001174  0079               	dw	121
   183  001176  0020               	dw	32
   184  001178  0049               	dw	73
   185  00117A  006E               	dw	110
   186  00117C  0063               	dw	99
   187  00117E  002E               	dw	46
   188  001180                     __end_of_sd001:
   189                           	opt stack 0
   190  001180                     _sd002:
   191                           	opt stack 0
   192  001180  34                 	db	52
   193  001181  03                 	db	3
   194  001182  0043               	dw	67
   195  001184  0044               	dw	68
   196  001186  0043               	dw	67
   197  001188  0020               	dw	32
   198  00118A  0052               	dw	82
   199  00118C  0053               	dw	83
   200  00118E  002D               	dw	45
   201  001190  0032               	dw	50
   202  001192  0033               	dw	51
   203  001194  0032               	dw	50
   204  001196  0020               	dw	32
   205  001198  0045               	dw	69
   206  00119A  006D               	dw	109
   207  00119C  0075               	dw	117
   208  00119E  006C               	dw	108
   209  0011A0  0061               	dw	97
   210  0011A2  0074               	dw	116
   211  0011A4  0069               	dw	105
   212  0011A6  006F               	dw	111
   213  0011A8  006E               	dw	110
   214  0011AA  0020               	dw	32
   215  0011AC  0044               	dw	68
   216  0011AE  0065               	dw	101
   217  0011B0  006D               	dw	109
   218  0011B2  006F               	dw	111
   219  0011B4                     __end_of_sd002:
   220                           	opt stack 0
   221  0011B4                     _device_dsc:
   222                           	opt stack 0
   223  0011B4  12                 	db	18
   224  0011B5  01                 	db	1
   225  0011B6  0200               	dw	512
   226  0011B8  02                 	db	2
   227  0011B9  00                 	db	0
   228  0011BA  00                 	db	0
   229  0011BB  08                 	db	8
   230  0011BC  04D8               	dw	1240
   231  0011BE  000A               	dw	10
   232  0011C0  0100               	dw	256
   233  0011C2  01                 	db	1
   234  0011C3  02                 	db	2
   235  0011C4  00                 	db	0
   236  0011C5  01                 	db	1
   237  0011C6                     __end_of_device_dsc:
   238                           	opt stack 0
   239  0011C6                     _sd000:
   240                           	opt stack 0
   241  0011C6  04                 	db	4
   242  0011C7  03                 	db	3
   243  0011C8  0409               	dw	1033
   244  0011CA                     __end_of_sd000:
   245                           	opt stack 0
   246  0000                     _ADCON0	set	4034
   247  0000                     _ADCON0bits	set	4034
   248  0000                     _ADCON1	set	4033
   249  0000                     _ADCON2	set	4032
   250  0000                     _ADRESH	set	4036
   251  0000                     _ADRESL	set	4035
   252  0000                     _CMCON	set	4020
   253  0000                     _INTCON	set	4082
   254  0000                     _INTCONbits	set	4082
   255  0000                     _IPR2bits	set	4002
   256  0000                     _LATBbits	set	3978
   257  0000                     _PIE1bits	set	3997
   258  0000                     _PIE2bits	set	4000
   259  0000                     _PIR1bits	set	3998
   260  0000                     _PIR2bits	set	4001
   261  0000                     _PORTA	set	3968
   262  0000                     _PORTB	set	3969
   263  0000                     _PORTBbits	set	3969
   264  0000                     _RCONbits	set	4048
   265  0000                     _T0CON	set	4053
   266  0000                     _T0CONbits	set	4053
   267  0000                     _TMR0H	set	4055
   268  0000                     _TMR0L	set	4054
   269  0000                     _TRISA	set	3986
   270  0000                     _TRISB	set	3987
   271  0000                     _TRISBbits	set	3987
   272  0000                     _UADDR	set	3950
   273  0000                     _UCFG	set	3951
   274  0000                     _UCON	set	3949
   275  0000                     _UCONbits	set	3949
   276  0000                     _UEIE	set	3947
   277  0000                     _UEIR	set	3946
   278  0000                     _UEP0bits	set	3952
   279  0000                     _UIE	set	3945
   280  0000                     _UIEbits	set	3945
   281  0000                     _UIR	set	3944
   282  0000                     _UIRbits	set	3944
   283  0000                     _USTAT	set	3948
   284  0000                     _UEP0	set	3952
   285  0000                     _UEP1	set	3953
   286  0011CA  00                 	db	0	; dummy byte at the end
   287  0000                     
   288                           ; #config settings
   289                           
   290                           	psect	cinit
   291  002C38                     __pcinit:
   292                           	opt stack 0
   293  002C38                     start_initialization:
   294                           	opt stack 0
   295  002C38                     __initialization:
   296                           	opt stack 0
   297                           
   298                           ; Clear objects allocated to BANK1 (64 bytes)
   299  002C38  EE01  F000         	lfsr	0,__pbssBANK1
   300  002C3C  0E40               	movlw	64
   301  002C3E                     clear_0:
   302  002C3E  6AEE               	clrf	postinc0,c
   303  002C40  06E8               	decf	wreg,f,c
   304  002C42  E1FD               	bnz	clear_0
   305                           
   306                           ; Clear objects allocated to BANK0 (131 bytes)
   307  002C44  EE00  F060         	lfsr	0,__pbssBANK0
   308  002C48  0E83               	movlw	131
   309  002C4A                     clear_1:
   310  002C4A  6AEE               	clrf	postinc0,c
   311  002C4C  06E8               	decf	wreg,f,c
   312  002C4E  E1FD               	bnz	clear_1
   313                           
   314                           ; Clear objects allocated to COMRAM (39 bytes)
   315  002C50  EE00  F02D         	lfsr	0,__pbssCOMRAM
   316  002C54  0E27               	movlw	39
   317  002C56                     clear_2:
   318  002C56  6AEE               	clrf	postinc0,c
   319  002C58  06E8               	decf	wreg,f,c
   320  002C5A  E1FD               	bnz	clear_2
   321  002C5C                     end_of_initialization:
   322                           	opt stack 0
   323  002C5C                     __end_of__initialization:
   324                           	opt stack 0
   325  002C5C  9054               	bcf	int$flags,0,c	;clear compiler interrupt flag (level 1)
   326  002C5E  9254               	bcf	int$flags,1,c	;clear compiler interrupt flag (level 2)
   327  002C60  0E00               	movlw	low (__Lmediumconst shr (0+16))
   328  002C62  6EF8               	movwf	tblptru,c
   329  002C64  0100               	movlb	0
   330  002C66  EF35  F016         	goto	_main	;jump to C main() function
   331                           tblptru	equ	0xFF8
   332                           postinc0	equ	0xFEE
   333                           wreg	equ	0xFE8
   334                           
   335                           	psect	bssCOMRAM
   336  00002D                     __pbssCOMRAM:
   337                           	opt stack 0
   338  00002D                     _BaudRateGen:
   339                           	opt stack 0
   340  00002D                     	ds	4
   341  000031                     APP_LEDUpdateUSBStatus@ledCount:
   342                           	opt stack 0
   343  000031                     	ds	2
   344  000033                     _pBDTEntryEP0OutCurrent:
   345                           	opt stack 0
   346  000033                     	ds	2
   347  000035                     _pBDTEntryEP0OutNext:
   348                           	opt stack 0
   349  000035                     	ds	2
   350  000037                     _pDst:
   351                           	opt stack 0
   352  000037                     	ds	2
   353  000039                     _BothEP0OutUOWNsSet:
   354                           	opt stack 0
   355  000039                     	ds	1
   356  00003A                     _RemoteWakeup:
   357                           	opt stack 0
   358  00003A                     	ds	1
   359  00003B                     _USBBusIsSuspended:
   360                           	opt stack 0
   361  00003B                     	ds	1
   362  00003C                     _USBDeferINDataStagePackets:
   363                           	opt stack 0
   364  00003C                     	ds	1
   365  00003D                     _USBDeferOUTDataStagePackets:
   366                           	opt stack 0
   367  00003D                     	ds	1
   368  00003E                     _USBDeferStatusStagePacket:
   369                           	opt stack 0
   370  00003E                     	ds	1
   371  00003F                     _USBDeviceState:
   372                           	opt stack 0
   373  00003F                     	ds	1
   374  000040                     _USBStatusStageEnabledFlag1:
   375                           	opt stack 0
   376  000040                     	ds	1
   377  000041                     _USBStatusStageEnabledFlag2:
   378                           	opt stack 0
   379  000041                     	ds	1
   380  000042                     _USBStatusStageTimeoutCounter:
   381                           	opt stack 0
   382  000042                     	ds	1
   383  000043                     _controlTransferState:
   384                           	opt stack 0
   385  000043                     	ds	1
   386  000044                     _control_signal_bitmap:
   387                           	opt stack 0
   388  000044                     	ds	1
   389  000045                     _endpoint_number:
   390                           	opt stack 0
   391  000045                     	ds	1
   392  000046                     _shortPacketStatus:
   393                           	opt stack 0
   394  000046                     	ds	1
   395  000047                     _timerHigh:
   396                           	opt stack 0
   397  000047                     	ds	1
   398  000048                     _timerLow:
   399                           	opt stack 0
   400  000048                     	ds	1
   401  000049                     _line_coding:
   402                           	opt stack 0
   403  000049                     	ds	7
   404  000050                     _USBAlternateInterface:
   405                           	opt stack 0
   406  000050                     	ds	2
   407  000052                     _USBActiveConfiguration:
   408                           	opt stack 0
   409  000052                     	ds	1
   410  000053                     _USTATcopy:
   411                           	opt stack 0
   412  000053                     	ds	1
   413                           tblptru	equ	0xFF8
   414                           postinc0	equ	0xFEE
   415                           wreg	equ	0xFE8
   416                           
   417                           	psect	bssBANK0
   418  000060                     __pbssBANK0:
   419                           	opt stack 0
   420  000060                     _cdc_notice:
   421                           	opt stack 0
   422  000060                     	ds	10
   423  00006A                     _outPipes:
   424                           	opt stack 0
   425  00006A                     	ds	8
   426  000072                     _inPipes:
   427                           	opt stack 0
   428  000072                     	ds	6
   429  000078                     _pBDTEntryIn:
   430                           	opt stack 0
   431  000078                     	ds	6
   432  00007E                     _pBDTEntryOut:
   433                           	opt stack 0
   434  00007E                     	ds	6
   435  000084                     _ep_data_in:
   436                           	opt stack 0
   437  000084                     	ds	3
   438  000087                     _ep_data_out:
   439                           	opt stack 0
   440  000087                     	ds	3
   441  00008A                     _pCDCDst:
   442                           	opt stack 0
   443  00008A                     	ds	3
   444  00008D                     _pCDCSrc:
   445                           	opt stack 0
   446  00008D                     	ds	3
   447  000090                     _CDCDataInHandle:
   448                           	opt stack 0
   449  000090                     	ds	2
   450  000092                     _CDCDataOutHandle:
   451                           	opt stack 0
   452  000092                     	ds	2
   453  000094                     _cdc_mem_type:
   454                           	opt stack 0
   455  000094                     	ds	1
   456  000095                     _cdc_rx_len:
   457                           	opt stack 0
   458  000095                     	ds	1
   459  000096                     _cdc_trf_state:
   460                           	opt stack 0
   461  000096                     	ds	1
   462  000097                     _cdc_tx_len:
   463                           	opt stack 0
   464  000097                     	ds	1
   465  000098                     _writeBuffer:
   466                           	opt stack 0
   467  000098                     	ds	64
   468  0000D8                     _dummy_encapsulated_cmd_response:
   469                           	opt stack 0
   470  0000D8                     	ds	8
   471  0000E0                     _ad:
   472                           	opt stack 0
   473  0000E0                     	ds	3
   474                           tblptru	equ	0xFF8
   475                           postinc0	equ	0xFEE
   476                           wreg	equ	0xFE8
   477                           
   478                           	psect	bssBANK1
   479  000100                     __pbssBANK1:
   480                           	opt stack 0
   481  000100                     _readBuffer:
   482                           	opt stack 0
   483  000100                     	ds	64
   484                           tblptru	equ	0xFF8
   485                           postinc0	equ	0xFEE
   486                           wreg	equ	0xFE8
   487                           
   488                           	psect	cstackBANK1
   489  000140                     __pcstackBANK1:
   490                           	opt stack 0
   491  000140                     ?_USBTransferOnePacket:
   492                           	opt stack 0
   493  000140                     LED_Enable@led:
   494                           	opt stack 0
   495  000140                     USBTransferOnePacket@dir:
   496                           	opt stack 0
   497  000140                     putUSBUSART@data:
   498                           	opt stack 0
   499  000140                     memset@p1:
   500                           	opt stack 0
   501                           
   502                           ; 2 bytes @ 0x0
   503  000140                     	ds	1
   504  000141                     SYSTEM_Initialize@state:
   505                           	opt stack 0
   506  000141                     USBTransferOnePacket@data:
   507                           	opt stack 0
   508                           
   509                           ; 2 bytes @ 0x1
   510  000141                     	ds	1
   511  000142                     putUSBUSART@length:
   512                           	opt stack 0
   513  000142                     memset@c:
   514                           	opt stack 0
   515                           
   516                           ; 2 bytes @ 0x2
   517  000142                     	ds	1
   518  000143                     USBTransferOnePacket@len:
   519                           	opt stack 0
   520                           
   521                           ; 1 bytes @ 0x3
   522  000143                     	ds	1
   523  000144                     USBTransferOnePacket@ep:
   524                           	opt stack 0
   525  000144                     memset@n:
   526                           	opt stack 0
   527                           
   528                           ; 2 bytes @ 0x4
   529  000144                     	ds	1
   530  000145                     USBTransferOnePacket@handle:
   531                           	opt stack 0
   532                           
   533                           ; 2 bytes @ 0x5
   534  000145                     	ds	1
   535  000146                     memset@p:
   536                           	opt stack 0
   537                           
   538                           ; 2 bytes @ 0x6
   539  000146                     	ds	1
   540  000147                     ??_CDCTxService:
   541  000147                     getsUSBUSART@buffer:
   542                           	opt stack 0
   543                           
   544                           ; 2 bytes @ 0x7
   545  000147                     	ds	1
   546  000148                     USBDeviceInit@i:
   547                           	opt stack 0
   548  000148                     _CDCTxService$2561:
   549                           	opt stack 0
   550                           
   551                           ; 2 bytes @ 0x8
   552  000148                     	ds	1
   553  000149                     getsUSBUSART@len:
   554                           	opt stack 0
   555                           
   556                           ; 1 bytes @ 0x9
   557  000149                     	ds	1
   558  00014A                     ??_getsUSBUSART:
   559  00014A                     CDCTxService@i:
   560                           	opt stack 0
   561                           
   562                           ; 1 bytes @ 0xA
   563  00014A                     	ds	1
   564  00014B                     CDCTxService@byte_to_send:
   565                           	opt stack 0
   566  00014B                     _getsUSBUSART$2513:
   567                           	opt stack 0
   568                           
   569                           ; 2 bytes @ 0xB
   570  00014B                     	ds	2
   571  00014D                     ??_APP_DeviceCDCBasicDemoTasks:
   572                           
   573                           ; 1 bytes @ 0xD
   574  00014D                     	ds	1
   575  00014E                     APP_DeviceCDCBasicDemoTasks@numBytesRead:
   576                           	opt stack 0
   577                           
   578                           ; 1 bytes @ 0xE
   579  00014E                     	ds	1
   580  00014F                     APP_DeviceCDCBasicDemoTasks@i:
   581                           	opt stack 0
   582                           
   583                           ; 1 bytes @ 0xF
   584  00014F                     	ds	1
   585  000150                     tblptru	equ	0xFF8
   586                           postinc0	equ	0xFEE
   587                           wreg	equ	0xFE8
   588                           
   589                           ; 1 bytes @ 0x10
   590                           
   591                           	psect	cstackBANK0
   592  0000E3                     __pcstackBANK0:
   593                           	opt stack 0
   594  0000E3                     ??_low_isr:
   595                           
   596                           ; 1 bytes @ 0x0
   597  0000E3                     	ds	17
   598                           tblptru	equ	0xFF8
   599                           postinc0	equ	0xFEE
   600                           wreg	equ	0xFE8
   601                           
   602                           	psect	cstackCOMRAM
   603  000001                     __pcstackCOMRAM:
   604                           	opt stack 0
   605  000001                     ??_USBStdGetDscHandler:
   606  000001                     ??_USBStdGetStatusHandler:
   607  000001                     ?i2_USBTransferOnePacket:
   608                           	opt stack 0
   609  000001                     LED_On@led:
   610                           	opt stack 0
   611  000001                     LED_Off@led:
   612                           	opt stack 0
   613  000001                     USBConfigureEndpoint@direction:
   614                           	opt stack 0
   615  000001                     USBCtrlTrfTxService@byteToSend:
   616                           	opt stack 0
   617  000001                     USBCtrlTrfRxService@i:
   618                           	opt stack 0
   619  000001                     i2USBTransferOnePacket@dir:
   620                           	opt stack 0
   621  000001                     i2putUSBUSART@data:
   622                           	opt stack 0
   623  000001                     i2memset@p1:
   624                           	opt stack 0
   625                           
   626                           ; 2 bytes @ 0x0
   627  000001                     	ds	1
   628  000002                     ??_USBConfigureEndpoint:
   629  000002                     USBCtrlTrfRxService@byteToRead:
   630                           	opt stack 0
   631  000002                     USBCtrlTrfInHandler@lastDTS:
   632                           	opt stack 0
   633  000002                     USBStdGetStatusHandler@p:
   634                           	opt stack 0
   635  000002                     i2USBTransferOnePacket@data:
   636                           	opt stack 0
   637                           
   638                           ; 2 bytes @ 0x1
   639  000002                     	ds	1
   640  000003                     i2putUSBUSART@length:
   641                           	opt stack 0
   642  000003                     i2memset@c:
   643                           	opt stack 0
   644                           
   645                           ; 2 bytes @ 0x2
   646  000003                     	ds	1
   647  000004                     i2USBTransferOnePacket@len:
   648                           	opt stack 0
   649                           
   650                           ; 1 bytes @ 0x3
   651  000004                     	ds	1
   652  000005                     i2USBTransferOnePacket@ep:
   653                           	opt stack 0
   654  000005                     i2memset@n:
   655                           	opt stack 0
   656                           
   657                           ; 2 bytes @ 0x4
   658  000005                     	ds	1
   659  000006                     USBConfigureEndpoint@EPNum:
   660                           	opt stack 0
   661  000006                     i2USBTransferOnePacket@handle:
   662                           	opt stack 0
   663                           
   664                           ; 2 bytes @ 0x5
   665  000006                     	ds	1
   666  000007                     USBConfigureEndpoint@handle:
   667                           	opt stack 0
   668  000007                     i2memset@p:
   669                           	opt stack 0
   670                           
   671                           ; 2 bytes @ 0x6
   672  000007                     	ds	2
   673  000009                     USBEnableEndpoint@options:
   674                           	opt stack 0
   675  000009                     i2USBDeviceInit@i:
   676                           	opt stack 0
   677                           
   678                           ; 1 bytes @ 0x8
   679  000009                     	ds	1
   680  00000A                     USBEnableEndpoint@p:
   681                           	opt stack 0
   682                           
   683                           ; 2 bytes @ 0x9
   684  00000A                     	ds	2
   685  00000C                     USBEnableEndpoint@ep:
   686                           	opt stack 0
   687                           
   688                           ; 1 bytes @ 0xB
   689  00000C                     	ds	1
   690  00000D                     USER_USB_CALLBACK_EVENT_HANDLER@event:
   691                           	opt stack 0
   692                           
   693                           ; 2 bytes @ 0xC
   694  00000D                     	ds	2
   695  00000F                     USER_USB_CALLBACK_EVENT_HANDLER@pdata:
   696                           	opt stack 0
   697                           
   698                           ; 2 bytes @ 0xE
   699  00000F                     	ds	2
   700  000011                     USER_USB_CALLBACK_EVENT_HANDLER@size:
   701                           	opt stack 0
   702                           
   703                           ; 2 bytes @ 0x10
   704  000011                     	ds	2
   705  000013                     ??_USER_USB_CALLBACK_EVENT_HANDLER:
   706                           
   707                           ; 1 bytes @ 0x12
   708  000013                     	ds	2
   709  000015                     ??_USBStdFeatureReqHandler:
   710  000015                     USBStdSetCfgHandler@i:
   711                           	opt stack 0
   712                           
   713                           ; 1 bytes @ 0x14
   714  000015                     	ds	1
   715  000016                     USBStdFeatureReqHandler@pUEP:
   716                           	opt stack 0
   717                           
   718                           ; 2 bytes @ 0x15
   719  000016                     	ds	2
   720  000018                     USBStdFeatureReqHandler@current_ep_data:
   721                           	opt stack 0
   722                           
   723                           ; 1 bytes @ 0x17
   724  000018                     	ds	1
   725  000019                     USBStdFeatureReqHandler@p:
   726                           	opt stack 0
   727                           
   728                           ; 2 bytes @ 0x18
   729  000019                     	ds	2
   730  00001B                     ??_USBCtrlEPService:
   731  00001B                     
   732                           ; 1 bytes @ 0x1A
   733  00001B                     	ds	2
   734  00001D                     USBCtrlEPService@setup_cnt:
   735                           	opt stack 0
   736                           
   737                           ; 1 bytes @ 0x1C
   738  00001D                     	ds	1
   739  00001E                     USBDeviceTasks@i:
   740                           	opt stack 0
   741                           
   742                           ; 1 bytes @ 0x1D
   743  00001E                     	ds	1
   744  00001F                     ??_SYS_InterruptHigh:
   745                           
   746                           ; 1 bytes @ 0x1E
   747  00001F                     	ds	14
   748                           tblptru	equ	0xFF8
   749                           postinc0	equ	0xFEE
   750                           wreg	equ	0xFE8
   751                           
   752 ;;
   753 ;;Main: autosize = 0, tempsize = 0, incstack = 0, save=0
   754 ;;
   755 ;; *************** function _main *****************
   756 ;; Defined at:
   757 ;;		line 26 in file "main.c"
   758 ;; Parameters:    Size  Location     Type
   759 ;;		None
   760 ;; Auto vars:     Size  Location     Type
   761 ;;		None
   762 ;; Return value:  Size  Location     Type
   763 ;;                  1    wreg      void 
   764 ;; Registers used:
   765 ;;		wreg, fsr1l, fsr1h, fsr2l, fsr2h, status,2, status,0, prodl, prodh, cstack
   766 ;; Tracked objects:
   767 ;;		On entry : 0/0
   768 ;;		On exit  : 0/0
   769 ;;		Unchanged: 0/0
   770 ;; Data sizes:     COMRAM   BANK0   BANK1   BANK2   BANK3   BANK4   BANK5   BANK6   BANK7
   771 ;;      Params:         0       0       0       0       0       0       0       0       0
   772 ;;      Locals:         0       0       0       0       0       0       0       0       0
   773 ;;      Temps:          0       0       0       0       0       0       0       0       0
   774 ;;      Totals:         0       0       0       0       0       0       0       0       0
   775 ;;Total ram usage:        0 bytes
   776 ;; Hardware stack levels required when called:   15
   777 ;; This function calls:
   778 ;;		_APP_DeviceCDCBasicDemoTasks
   779 ;;		_SYSTEM_Initialize
   780 ;;		_USBDeviceAttach
   781 ;;		_USBDeviceInit
   782 ;;		_UserInit
   783 ;; This function is called by:
   784 ;;		Startup code after reset
   785 ;; This function uses a non-reentrant model
   786 ;;
   787                           
   788                           	psect	text0
   789  002C6A                     __ptext0:
   790                           	opt stack 0
   791  002C6A                     _main:
   792                           	opt stack 16
   793                           
   794                           ;main.c: 28: timerLow = 0x00;
   795                           
   796                           ; BSR set to: 0
   797                           ;incstack = 0
   798  002C6A  0E00               	movlw	0
   799  002C6C  6E48               	movwf	_timerLow,c
   800                           
   801                           ;main.c: 29: timerHigh = 0x00;
   802  002C6E  0E00               	movlw	0
   803  002C70  6E47               	movwf	_timerHigh,c
   804                           
   805                           ;main.c: 30: ad[0] = 1;
   806  002C72  0E01               	movlw	1
   807  002C74  0100               	movlb	0	; () banked
   808  002C76  6FE0               	movwf	_ad& (0+255),b
   809                           
   810                           ;main.c: 31: ad[1] = 0;
   811  002C78  0E00               	movlw	0
   812  002C7A  0100               	movlb	0	; () banked
   813  002C7C  6FE1               	movwf	(_ad+1)& (0+255),b
   814                           
   815                           ;main.c: 32: ad[2] = 0;
   816  002C7E  0E00               	movlw	0
   817  002C80  0100               	movlb	0	; () banked
   818  002C82  6FE2               	movwf	(_ad+2)& (0+255),b
   819                           
   820                           ; BSR set to: 0
   821                           ;main.c: 33: SYSTEM_Initialize(SYSTEM_STATE_USB_START);
   822  002C84  0E00               	movlw	0
   823  002C86  ECE0  F016         	call	_SYSTEM_Initialize
   824                           
   825                           ;main.c: 35: USBDeviceInit();
   826  002C8A  EC9A  F00B         	call	_USBDeviceInit	;wreg free
   827                           
   828                           ;main.c: 36: USBDeviceAttach();
   829  002C8E  EC4E  F016         	call	_USBDeviceAttach	;wreg free
   830                           
   831                           ;main.c: 37: UserInit();
   832  002C92  ECE6  F015         	call	_UserInit	;wreg free
   833  002C96                     l4547:
   834                           
   835                           ;main.c: 39: {
   836                           ;main.c: 40: ;
   837                           ;main.c: 42: APP_DeviceCDCBasicDemoTasks();
   838  002C96  ECEC  F00A         	call	_APP_DeviceCDCBasicDemoTasks	;wreg free
   839  002C9A  D7FD               	goto	l4547
   840  002C9C                     __end_of_main:
   841                           	opt stack 0
   842                           tblptru	equ	0xFF8
   843                           postinc0	equ	0xFEE
   844                           wreg	equ	0xFE8
   845                           
   846 ;; *************** function _UserInit *****************
   847 ;; Defined at:
   848 ;;		line 48 in file "main.c"
   849 ;; Parameters:    Size  Location     Type
   850 ;;		None
   851 ;; Auto vars:     Size  Location     Type
   852 ;;		None
   853 ;; Return value:  Size  Location     Type
   854 ;;                  1    wreg      void 
   855 ;; Registers used:
   856 ;;		wreg, status,2
   857 ;; Tracked objects:
   858 ;;		On entry : 0/0
   859 ;;		On exit  : 0/0
   860 ;;		Unchanged: 0/0
   861 ;; Data sizes:     COMRAM   BANK0   BANK1   BANK2   BANK3   BANK4   BANK5   BANK6   BANK7
   862 ;;      Params:         0       0       0       0       0       0       0       0       0
   863 ;;      Locals:         0       0       0       0       0       0       0       0       0
   864 ;;      Temps:          0       0       0       0       0       0       0       0       0
   865 ;;      Totals:         0       0       0       0       0       0       0       0       0
   866 ;;Total ram usage:        0 bytes
   867 ;; Hardware stack levels used:    1
   868 ;; Hardware stack levels required when called:   12
   869 ;; This function calls:
   870 ;;		Nothing
   871 ;; This function is called by:
   872 ;;		_main
   873 ;; This function uses a non-reentrant model
   874 ;;
   875                           
   876                           	psect	text1
   877  002BCC                     __ptext1:
   878                           	opt stack 0
   879  002BCC                     _UserInit:
   880                           	opt stack 18
   881                           
   882                           ;main.c: 50: PORTA = 0x00;
   883                           
   884                           ;incstack = 0
   885  002BCC  0E00               	movlw	0
   886  002BCE  6E80               	movwf	3968,c	;volatile
   887                           
   888                           ;main.c: 51: TRISA = 0x01;
   889  002BD0  0E01               	movlw	1
   890  002BD2  6E92               	movwf	3986,c	;volatile
   891                           
   892                           ;main.c: 52: PORTB = 0x00;
   893  002BD4  0E00               	movlw	0
   894  002BD6  6E81               	movwf	3969,c	;volatile
   895                           
   896                           ;main.c: 53: TRISB = 0x02;
   897  002BD8  0E02               	movlw	2
   898  002BDA  6E93               	movwf	3987,c	;volatile
   899                           
   900                           ;main.c: 54: CMCON = 0x07;
   901  002BDC  0E07               	movlw	7
   902  002BDE  6EB4               	movwf	4020,c	;volatile
   903                           
   904                           ;main.c: 58: T0CON = 0x07;
   905  002BE0  0E07               	movlw	7
   906  002BE2  6ED5               	movwf	4053,c	;volatile
   907                           
   908                           ;main.c: 59: TMR0H = 0x00;
   909  002BE4  0E00               	movlw	0
   910  002BE6  6ED7               	movwf	4055,c	;volatile
   911                           
   912                           ;main.c: 60: TMR0L = 0x00;
   913  002BE8  0E00               	movlw	0
   914  002BEA  6ED6               	movwf	4054,c	;volatile
   915                           
   916                           ;main.c: 61: INTCON= 0x20;
   917  002BEC  0E20               	movlw	32
   918  002BEE  6EF2               	movwf	intcon,c	;volatile
   919                           
   920                           ;main.c: 63: ADCON0 = 0x01;
   921  002BF0  0E01               	movlw	1
   922  002BF2  6EC2               	movwf	4034,c	;volatile
   923                           
   924                           ;main.c: 64: ADCON1 = 0x00;
   925  002BF4  0E00               	movlw	0
   926  002BF6  6EC1               	movwf	4033,c	;volatile
   927                           
   928                           ;main.c: 65: ADCON2 = 0x3E;
   929  002BF8  0E3E               	movlw	62
   930  002BFA  6EC0               	movwf	4032,c	;volatile
   931                           
   932                           ;main.c: 66: INTCONbits.PEIE = 1;
   933  002BFC  8CF2               	bsf	intcon,6,c	;volatile
   934                           
   935                           ;main.c: 67: PIE1bits.ADIE = 1;
   936  002BFE  8C9D               	bsf	3997,6,c	;volatile
   937                           
   938                           ;main.c: 68: INTCONbits.GIE = 1;
   939  002C00  8EF2               	bsf	intcon,7,c	;volatile
   940  002C02  0012               	return		;funcret
   941  002C04                     __end_of_UserInit:
   942                           	opt stack 0
   943                           tblptru	equ	0xFF8
   944                           intcon	equ	0xFF2
   945                           postinc0	equ	0xFEE
   946                           wreg	equ	0xFE8
   947                           
   948 ;; *************** function _USBDeviceInit *****************
   949 ;; Defined at:
   950 ;;		line 298 in file "usb_device.c"
   951 ;; Parameters:    Size  Location     Type
   952 ;;		None
   953 ;; Auto vars:     Size  Location     Type
   954 ;;  i               1    8[BANK1 ] unsigned char 
   955 ;; Return value:  Size  Location     Type
   956 ;;                  1    wreg      void 
   957 ;; Registers used:
   958 ;;		wreg, fsr2l, fsr2h, status,2, status,0, prodl, prodh, cstack
   959 ;; Tracked objects:
   960 ;;		On entry : 0/0
   961 ;;		On exit  : 0/0
   962 ;;		Unchanged: 0/0
   963 ;; Data sizes:     COMRAM   BANK0   BANK1   BANK2   BANK3   BANK4   BANK5   BANK6   BANK7
   964 ;;      Params:         0       0       0       0       0       0       0       0       0
   965 ;;      Locals:         0       0       1       0       0       0       0       0       0
   966 ;;      Temps:          0       0       0       0       0       0       0       0       0
   967 ;;      Totals:         0       0       1       0       0       0       0       0       0
   968 ;;Total ram usage:        1 bytes
   969 ;; Hardware stack levels used:    1
   970 ;; Hardware stack levels required when called:   13
   971 ;; This function calls:
   972 ;;		_memset
   973 ;; This function is called by:
   974 ;;		_main
   975 ;; This function uses a non-reentrant model
   976 ;;
   977                           
   978                           	psect	text2
   979  001734                     __ptext2:
   980                           	opt stack 0
   981  001734                     _USBDeviceInit:
   982                           	opt stack 17
   983                           
   984                           ;usb_device.c: 300: uint8_t i;
   985                           ;usb_device.c: 302: {PIE2bits.USBIE = 0;};
   986                           
   987                           ;incstack = 0
   988  001734  9AA0               	bcf	4000,5,c	;volatile
   989                           
   990                           ;usb_device.c: 305: {UEIR = 0;};
   991  001736  0E00               	movlw	0
   992  001738  6E6A               	movwf	3946,c	;volatile
   993                           
   994                           ;usb_device.c: 308: {UIR = 0;};
   995  00173A  0E00               	movlw	0
   996  00173C  6E68               	movwf	3944,c	;volatile
   997                           
   998                           ;usb_device.c: 311: UEP0 = 0;
   999  00173E  0E00               	movlw	0
  1000  001740  6E70               	movwf	3952,c	;volatile
  1001                           
  1002                           ;usb_device.c: 313: memset((void*)&UEP1,0x00,(2));;
  1003  001742  0E71               	movlw	113
  1004  001744  0101               	movlb	1	; () banked
  1005  001746  6F40               	movwf	memset@p1& (0+255),b
  1006  001748  0E0F               	movlw	15
  1007  00174A  0101               	movlb	1	; () banked
  1008  00174C  6F41               	movwf	(memset@p1+1)& (0+255),b
  1009  00174E  0E00               	movlw	0
  1010  001750  0101               	movlb	1	; () banked
  1011  001752  6F43               	movwf	(memset@c+1)& (0+255),b
  1012  001754  0E00               	movlw	0
  1013  001756  6F42               	movwf	memset@c& (0+255),b
  1014  001758  0E00               	movlw	0
  1015  00175A  0101               	movlb	1	; () banked
  1016  00175C  6F45               	movwf	(memset@n+1)& (0+255),b
  1017  00175E  0E02               	movlw	2
  1018  001760  6F44               	movwf	memset@n& (0+255),b
  1019  001762  EC02  F016         	call	_memset	;wreg free
  1020                           
  1021                           ;usb_device.c: 315: { UCFG = 0x10 | 0x00 | 0x04 | 0x02; UEIE = 0x9F; UIE = 0x39 | 0x40 |
      +                           0x02; };
  1022  001766  0E16               	movlw	22
  1023  001768  6E6F               	movwf	3951,c	;volatile
  1024  00176A  0E9F               	movlw	159
  1025  00176C  6E6B               	movwf	3947,c	;volatile
  1026  00176E  0E7B               	movlw	123
  1027  001770  6E69               	movwf	3945,c	;volatile
  1028                           
  1029                           ;usb_device.c: 318: ;
  1030                           ;usb_device.c: 321: ;
  1031                           ;usb_device.c: 324: for(i=0;i<(sizeof(BDT)/sizeof(BDT_ENTRY));i++)
  1032  001772  0E00               	movlw	0
  1033  001774  0101               	movlb	1	; () banked
  1034  001776  6F48               	movwf	USBDeviceInit@i& (0+255),b
  1035  001778                     l4409:
  1036                           
  1037                           ; BSR set to: 1
  1038  001778  0E0B               	movlw	11
  1039  00177A  0101               	movlb	1	; () banked
  1040  00177C  6548               	cpfsgt	USBDeviceInit@i& (0+255),b
  1041  00177E  D001               	goto	l4413
  1042  001780  D010               	goto	l362
  1043  001782                     l4413:
  1044                           
  1045                           ; BSR set to: 1
  1046                           ;usb_device.c: 325: {
  1047                           ;usb_device.c: 326: BDT[i].Val = 0x00;
  1048  001782  0101               	movlb	1	; () banked
  1049  001784  5148               	movf	USBDeviceInit@i& (0+255),w,b
  1050  001786  0D04               	mullw	4
  1051  001788  0E00               	movlw	0
  1052  00178A  24F3               	addwf	prodl,w,c
  1053  00178C  6ED9               	movwf	fsr2l,c
  1054  00178E  0E04               	movlw	4
  1055  001790  20F4               	addwfc	prodh,w,c
  1056  001792  6EDA               	movwf	fsr2h,c
  1057  001794  6ADE               	clrf	postinc2,c
  1058  001796  6ADE               	clrf	postinc2,c
  1059  001798  6ADE               	clrf	postinc2,c
  1060  00179A  6ADD               	clrf	postdec2,c
  1061                           
  1062                           ; BSR set to: 1
  1063  00179C  0101               	movlb	1	; () banked
  1064  00179E  2B48               	incf	USBDeviceInit@i& (0+255),f,b
  1065  0017A0  D7EB               	goto	l4409
  1066  0017A2                     l362:
  1067                           
  1068                           ; BSR set to: 1
  1069                           ;usb_device.c: 327: }
  1070                           ;usb_device.c: 330: UCONbits.PPBRST = 1;
  1071  0017A2  8C6D               	bsf	3949,6,c	;volatile
  1072                           
  1073                           ; BSR set to: 1
  1074                           ;usb_device.c: 333: UADDR = 0x00;
  1075  0017A4  0E00               	movlw	0
  1076  0017A6  6E6E               	movwf	3950,c	;volatile
  1077                           
  1078                           ; BSR set to: 1
  1079                           ;usb_device.c: 336: UCONbits.PKTDIS = 0;
  1080  0017A8  986D               	bcf	3949,4,c	;volatile
  1081                           
  1082                           ; BSR set to: 1
  1083                           ;usb_device.c: 339: UCONbits.PPBRST = 0;
  1084  0017AA  9C6D               	bcf	3949,6,c	;volatile
  1085                           
  1086                           ;usb_device.c: 342: while(UIRbits.TRNIF == 1)
  1087  0017AC  D00C               	goto	l4433
  1088  0017AE                     l4425:
  1089                           
  1090                           ;usb_device.c: 343: {
  1091                           ;usb_device.c: 344: (UIR &= 0xF7);
  1092  0017AE  9668               	bcf	3944,3,c	;volatile
  1093                           
  1094                           ;usb_device.c: 346: inPipes[0].info.Val = 0;
  1095  0017B0  0E00               	movlw	0
  1096  0017B2  0100               	movlb	0	; () banked
  1097  0017B4  6F75               	movwf	(_inPipes+3)& (0+255),b	;volatile
  1098                           
  1099                           ; BSR set to: 0
  1100                           ;usb_device.c: 347: outPipes[0].info.Val = 0;
  1101  0017B6  0E00               	movlw	0
  1102  0017B8  0100               	movlb	0	; () banked
  1103  0017BA  6F6D               	movwf	(_outPipes+3)& (0+255),b	;volatile
  1104                           
  1105                           ; BSR set to: 0
  1106                           ;usb_device.c: 348: outPipes[0].wCount.Val = 0;
  1107  0017BC  0E00               	movlw	0
  1108  0017BE  0100               	movlb	0	; () banked
  1109  0017C0  6F6F               	movwf	(_outPipes+5)& (0+255),b	;volatile
  1110  0017C2  0E00               	movlw	0
  1111  0017C4  6F6E               	movwf	(_outPipes+4)& (0+255),b	;volatile
  1112  0017C6                     l4433:
  1113  0017C6  B668               	btfsc	3944,3,c	;volatile
  1114  0017C8  D7F2               	goto	l4425
  1115                           
  1116                           ;usb_device.c: 349: }
  1117                           ;usb_device.c: 353: USBStatusStageEnabledFlag1 = 1;
  1118  0017CA  0E01               	movlw	1
  1119  0017CC  6E40               	movwf	_USBStatusStageEnabledFlag1,c	;volatile
  1120                           
  1121                           ;usb_device.c: 354: USBStatusStageEnabledFlag2 = 1;
  1122  0017CE  0E01               	movlw	1
  1123  0017D0  6E41               	movwf	_USBStatusStageEnabledFlag2,c	;volatile
  1124                           
  1125                           ;usb_device.c: 356: USBDeferINDataStagePackets = 0;
  1126  0017D2  0E00               	movlw	0
  1127  0017D4  6E3C               	movwf	_USBDeferINDataStagePackets,c	;volatile
  1128                           
  1129                           ;usb_device.c: 357: USBDeferOUTDataStagePackets = 0;
  1130  0017D6  0E00               	movlw	0
  1131  0017D8  6E3D               	movwf	_USBDeferOUTDataStagePackets,c	;volatile
  1132                           
  1133                           ;usb_device.c: 358: USBBusIsSuspended = 0;
  1134  0017DA  0E00               	movlw	0
  1135  0017DC  6E3B               	movwf	_USBBusIsSuspended,c	;volatile
  1136                           
  1137                           ;usb_device.c: 362: for(i = 0; i < (uint8_t)(2+1u); i++)
  1138  0017DE  0E00               	movlw	0
  1139  0017E0  0101               	movlb	1	; () banked
  1140  0017E2  6F48               	movwf	USBDeviceInit@i& (0+255),b
  1141  0017E4                     l4437:
  1142                           
  1143                           ; BSR set to: 1
  1144  0017E4  0E02               	movlw	2
  1145  0017E6  0101               	movlb	1	; () banked
  1146  0017E8  6548               	cpfsgt	USBDeviceInit@i& (0+255),b
  1147  0017EA  D001               	goto	l4441
  1148  0017EC  D033               	goto	l4447
  1149  0017EE                     l4441:
  1150                           
  1151                           ; BSR set to: 1
  1152                           ;usb_device.c: 363: {
  1153                           ;usb_device.c: 364: pBDTEntryIn[i] = 0u;
  1154  0017EE  0101               	movlb	1	; () banked
  1155  0017F0  5148               	movf	USBDeviceInit@i& (0+255),w,b
  1156  0017F2  0D02               	mullw	2
  1157  0017F4  0E78               	movlw	low _pBDTEntryIn
  1158  0017F6  24F3               	addwf	prodl,w,c
  1159  0017F8  6ED9               	movwf	fsr2l,c
  1160  0017FA  0E00               	movlw	high _pBDTEntryIn
  1161  0017FC  20F4               	addwfc	prodh,w,c
  1162  0017FE  6EDA               	movwf	fsr2h,c
  1163  001800  0E00               	movlw	0
  1164  001802  6EDE               	movwf	postinc2,c
  1165  001804  0E00               	movlw	0
  1166  001806  6EDD               	movwf	postdec2,c
  1167                           
  1168                           ;usb_device.c: 365: pBDTEntryOut[i] = 0u;
  1169  001808  0101               	movlb	1	; () banked
  1170  00180A  5148               	movf	USBDeviceInit@i& (0+255),w,b
  1171  00180C  0D02               	mullw	2
  1172  00180E  0E7E               	movlw	low _pBDTEntryOut
  1173  001810  24F3               	addwf	prodl,w,c
  1174  001812  6ED9               	movwf	fsr2l,c
  1175  001814  0E00               	movlw	high _pBDTEntryOut
  1176  001816  20F4               	addwfc	prodh,w,c
  1177  001818  6EDA               	movwf	fsr2h,c
  1178  00181A  0E00               	movlw	0
  1179  00181C  6EDE               	movwf	postinc2,c
  1180  00181E  0E00               	movlw	0
  1181  001820  6EDD               	movwf	postdec2,c
  1182                           
  1183                           ;usb_device.c: 366: ep_data_in[i].Val = 0u;
  1184  001822  0101               	movlb	1	; () banked
  1185  001824  5148               	movf	USBDeviceInit@i& (0+255),w,b
  1186  001826  0D01               	mullw	1
  1187  001828  0E84               	movlw	low _ep_data_in
  1188  00182A  24F3               	addwf	prodl,w,c
  1189  00182C  6ED9               	movwf	fsr2l,c
  1190  00182E  0E00               	movlw	high _ep_data_in
  1191  001830  20F4               	addwfc	prodh,w,c
  1192  001832  6EDA               	movwf	fsr2h,c
  1193  001834  0E00               	movlw	0
  1194  001836  6EDF               	movwf	indf2,c
  1195                           
  1196                           ;usb_device.c: 367: ep_data_out[i].Val = 0u;
  1197  001838  0101               	movlb	1	; () banked
  1198  00183A  5148               	movf	USBDeviceInit@i& (0+255),w,b
  1199  00183C  0D01               	mullw	1
  1200  00183E  0E87               	movlw	low _ep_data_out
  1201  001840  24F3               	addwf	prodl,w,c
  1202  001842  6ED9               	movwf	fsr2l,c
  1203  001844  0E00               	movlw	high _ep_data_out
  1204  001846  20F4               	addwfc	prodh,w,c
  1205  001848  6EDA               	movwf	fsr2h,c
  1206  00184A  0E00               	movlw	0
  1207  00184C  6EDF               	movwf	indf2,c
  1208                           
  1209                           ; BSR set to: 1
  1210  00184E  0101               	movlb	1	; () banked
  1211  001850  2B48               	incf	USBDeviceInit@i& (0+255),f,b
  1212  001852  D7C8               	goto	l4437
  1213  001854                     l4447:
  1214                           
  1215                           ; BSR set to: 1
  1216                           ;usb_device.c: 368: }
  1217                           ;usb_device.c: 371: pBDTEntryIn[0] = (volatile BDT_ENTRY*)&BDT[2];
  1218  001854  0E08               	movlw	8
  1219  001856  0100               	movlb	0	; () banked
  1220  001858  6F78               	movwf	_pBDTEntryIn& (0+255),b
  1221  00185A  0E04               	movlw	4
  1222  00185C  0100               	movlb	0	; () banked
  1223  00185E  6F79               	movwf	(_pBDTEntryIn+1)& (0+255),b
  1224                           
  1225                           ; BSR set to: 0
  1226                           ;usb_device.c: 373: UEP0 = 0x06|0x10;
  1227  001860  0E16               	movlw	22
  1228  001862  6E70               	movwf	3952,c	;volatile
  1229                           
  1230                           ; BSR set to: 0
  1231                           ;usb_device.c: 375: BDT[0].ADR = ((uint16_t)(&SetupPkt));
  1232  001864  0E04               	movlw	4
  1233  001866  0104               	movlb	4	; () banked
  1234  001868  6F03               	movwf	3,b	;volatile
  1235  00186A  0E30               	movlw	48
  1236  00186C  6F02               	movwf	2,b	;volatile
  1237                           
  1238                           ; BSR set to: 4
  1239                           ;usb_device.c: 376: BDT[0].CNT = 8;
  1240  00186E  0E08               	movlw	8
  1241  001870  0104               	movlb	4	; () banked
  1242  001872  6F01               	movwf	1,b	;volatile
  1243                           
  1244                           ; BSR set to: 4
  1245                           ;usb_device.c: 377: BDT[0].STAT.Val = 0x00|0x04;
  1246  001874  0E04               	movlw	4
  1247  001876  0104               	movlb	4	; () banked
  1248  001878  6F00               	movwf	0,b	;volatile
  1249                           
  1250                           ; BSR set to: 4
  1251                           ;usb_device.c: 378: BDT[0].STAT.Val |= 0x80;
  1252  00187A  0104               	movlb	4	; () banked
  1253  00187C  8F00               	bsf	0,7,b	;volatile
  1254                           
  1255                           ; BSR set to: 4
  1256                           ;usb_device.c: 381: USBActiveConfiguration = 0;
  1257  00187E  0E00               	movlw	0
  1258  001880  6E52               	movwf	_USBActiveConfiguration,c	;volatile
  1259                           
  1260                           ; BSR set to: 4
  1261                           ;usb_device.c: 384: USBDeviceState = DETACHED_STATE;
  1262  001882  0E00               	movlw	0
  1263  001884  6E3F               	movwf	_USBDeviceState,c	;volatile
  1264                           
  1265                           ; BSR set to: 4
  1266  001886  0012               	return		;funcret
  1267  001888                     __end_of_USBDeviceInit:
  1268                           	opt stack 0
  1269                           tblptru	equ	0xFF8
  1270                           prodh	equ	0xFF4
  1271                           prodl	equ	0xFF3
  1272                           intcon	equ	0xFF2
  1273                           postinc0	equ	0xFEE
  1274                           wreg	equ	0xFE8
  1275                           indf2	equ	0xFDF
  1276                           postinc2	equ	0xFDE
  1277                           postdec2	equ	0xFDD
  1278                           fsr2h	equ	0xFDA
  1279                           fsr2l	equ	0xFD9
  1280                           
  1281 ;; *************** function _memset *****************
  1282 ;; Defined at:
  1283 ;;		line 8 in file "C:\Program Files (x86)\Microchip\xc8\v1.36\sources\common\memset.c"
  1284 ;; Parameters:    Size  Location     Type
  1285 ;;  p1              2    0[BANK1 ] PTR void 
  1286 ;;		 -> USBAlternateInterface(2), BDT(48), UEP1(1), 
  1287 ;;  c               2    2[BANK1 ] int 
  1288 ;;  n               2    4[BANK1 ] unsigned int 
  1289 ;; Auto vars:     Size  Location     Type
  1290 ;;  p               2    6[BANK1 ] PTR unsigned char 
  1291 ;;		 -> USBAlternateInterface(2), BDT(48), UEP1(1), 
  1292 ;; Return value:  Size  Location     Type
  1293 ;;                  2    0[BANK1 ] PTR void 
  1294 ;; Registers used:
  1295 ;;		wreg, fsr2l, fsr2h, status,2, status,0
  1296 ;; Tracked objects:
  1297 ;;		On entry : 0/0
  1298 ;;		On exit  : 0/0
  1299 ;;		Unchanged: 0/0
  1300 ;; Data sizes:     COMRAM   BANK0   BANK1   BANK2   BANK3   BANK4   BANK5   BANK6   BANK7
  1301 ;;      Params:         0       0       6       0       0       0       0       0       0
  1302 ;;      Locals:         0       0       2       0       0       0       0       0       0
  1303 ;;      Temps:          0       0       0       0       0       0       0       0       0
  1304 ;;      Totals:         0       0       8       0       0       0       0       0       0
  1305 ;;Total ram usage:        8 bytes
  1306 ;; Hardware stack levels used:    1
  1307 ;; Hardware stack levels required when called:   12
  1308 ;; This function calls:
  1309 ;;		Nothing
  1310 ;; This function is called by:
  1311 ;;		_USBDeviceInit
  1312 ;; This function uses a non-reentrant model
  1313 ;;
  1314                           
  1315                           	psect	text3
  1316  002C04                     __ptext3:
  1317                           	opt stack 0
  1318  002C04                     _memset:
  1319                           	opt stack 17
  1320                           
  1321                           ; BSR set to: 4
  1322                           ;incstack = 0
  1323  002C04  C140  F146         	movff	memset@p1,memset@p
  1324  002C08  C141  F147         	movff	memset@p1+1,memset@p+1
  1325  002C0C  D009               	goto	l4385
  1326  002C0E                     l4381:
  1327  002C0E  C146  FFD9         	movff	memset@p,fsr2l
  1328  002C12  C147  FFDA         	movff	memset@p+1,fsr2h
  1329  002C16  C142  FFDF         	movff	memset@c,indf2
  1330  002C1A  0101               	movlb	1	; () banked
  1331  002C1C  4B46               	infsnz	memset@p& (0+255),f,b
  1332  002C1E  2B47               	incf	(memset@p+1)& (0+255),f,b
  1333  002C20                     l4385:
  1334  002C20  0101               	movlb	1	; () banked
  1335  002C22  0744               	decf	memset@n& (0+255),f,b
  1336  002C24  A0D8               	btfss	status,0,c
  1337  002C26  0745               	decf	(memset@n+1)& (0+255),f,b
  1338  002C28  0101               	movlb	1	; () banked
  1339  002C2A  2944               	incf	memset@n& (0+255),w,b
  1340  002C2C  E1F0               	bnz	l4381
  1341  002C2E  0101               	movlb	1	; () banked
  1342  002C30  2945               	incf	(memset@n+1)& (0+255),w,b
  1343  002C32  B4D8               	btfsc	status,2,c
  1344  002C34  0012               	return	
  1345  002C36  D7EB               	goto	l4381
  1346  002C38                     __end_of_memset:
  1347                           	opt stack 0
  1348                           tblptru	equ	0xFF8
  1349                           prodh	equ	0xFF4
  1350                           prodl	equ	0xFF3
  1351                           intcon	equ	0xFF2
  1352                           postinc0	equ	0xFEE
  1353                           wreg	equ	0xFE8
  1354                           indf2	equ	0xFDF
  1355                           postinc2	equ	0xFDE
  1356                           postdec2	equ	0xFDD
  1357                           fsr2h	equ	0xFDA
  1358                           fsr2l	equ	0xFD9
  1359                           status	equ	0xFD8
  1360                           
  1361 ;; *************** function _USBDeviceAttach *****************
  1362 ;; Defined at:
  1363 ;;		line 1352 in file "usb_device.c"
  1364 ;; Parameters:    Size  Location     Type
  1365 ;;		None
  1366 ;; Auto vars:     Size  Location     Type
  1367 ;;		None
  1368 ;; Return value:  Size  Location     Type
  1369 ;;                  1    wreg      void 
  1370 ;; Registers used:
  1371 ;;		wreg, status,2
  1372 ;; Tracked objects:
  1373 ;;		On entry : 0/0
  1374 ;;		On exit  : 0/0
  1375 ;;		Unchanged: 0/0
  1376 ;; Data sizes:     COMRAM   BANK0   BANK1   BANK2   BANK3   BANK4   BANK5   BANK6   BANK7
  1377 ;;      Params:         0       0       0       0       0       0       0       0       0
  1378 ;;      Locals:         0       0       0       0       0       0       0       0       0
  1379 ;;      Temps:          0       0       0       0       0       0       0       0       0
  1380 ;;      Totals:         0       0       0       0       0       0       0       0       0
  1381 ;;Total ram usage:        0 bytes
  1382 ;; Hardware stack levels used:    1
  1383 ;; Hardware stack levels required when called:   12
  1384 ;; This function calls:
  1385 ;;		Nothing
  1386 ;; This function is called by:
  1387 ;;		_main
  1388 ;; This function uses a non-reentrant model
  1389 ;;
  1390                           
  1391                           	psect	text4
  1392  002C9C                     __ptext4:
  1393                           	opt stack 0
  1394  002C9C                     _USBDeviceAttach:
  1395                           	opt stack 18
  1396                           
  1397                           ;usb_device.c: 1356: {
  1398                           ;usb_device.c: 1357: if(1 == 1)
  1399                           
  1400                           ; BSR set to: 1
  1401                           ;incstack = 0
  1402  002C9C  503F               	movf	_USBDeviceState,w,c	;volatile
  1403  002C9E  A4D8               	btfss	status,2,c
  1404  002CA0  0012               	return	
  1405                           
  1406                           ;usb_device.c: 1358: {
  1407                           ;usb_device.c: 1360: UCON = 0;
  1408  002CA2  0E00               	movlw	0
  1409  002CA4  6E6D               	movwf	3949,c	;volatile
  1410                           
  1411                           ;usb_device.c: 1363: UIE = 0;
  1412  002CA6  0E00               	movlw	0
  1413  002CA8  6E69               	movwf	3945,c	;volatile
  1414                           
  1415                           ;usb_device.c: 1367: { UCFG = 0x10 | 0x00 | 0x04 | 0x02; UEIE = 0x9F; UIE = 0x39 | 0x40 
      +                          | 0x02; };
  1416  002CAA  0E16               	movlw	22
  1417  002CAC  6E6F               	movwf	3951,c	;volatile
  1418  002CAE  0E9F               	movlw	159
  1419  002CB0  6E6B               	movwf	3947,c	;volatile
  1420  002CB2  0E7B               	movlw	123
  1421  002CB4  6E69               	movwf	3945,c	;volatile
  1422                           
  1423                           ;usb_device.c: 1369: {RCONbits.IPEN = 1;IPR2bits.USBIP = 1;PIE2bits.USBIE = 1;INTCONbits
      +                          .GIEH = 1;};
  1424  002CB6  8ED0               	bsf	4048,7,c	;volatile
  1425  002CB8  8AA2               	bsf	4002,5,c	;volatile
  1426  002CBA  8AA0               	bsf	4000,5,c	;volatile
  1427  002CBC  8EF2               	bsf	intcon,7,c	;volatile
  1428                           
  1429                           ;usb_device.c: 1372: while(!UCONbits.USBEN){UCONbits.USBEN = 1;}
  1430  002CBE  D001               	goto	l423
  1431  002CC0                     l424:
  1432  002CC0  866D               	bsf	3949,3,c	;volatile
  1433  002CC2                     l423:
  1434  002CC2  A66D               	btfss	3949,3,c	;volatile
  1435  002CC4  D7FD               	goto	l424
  1436                           
  1437                           ;usb_device.c: 1375: USBDeviceState = ATTACHED_STATE;
  1438  002CC6  0E01               	movlw	1
  1439  002CC8  6E3F               	movwf	_USBDeviceState,c	;volatile
  1440  002CCA  0012               	return	
  1441  002CCC                     __end_of_USBDeviceAttach:
  1442                           	opt stack 0
  1443                           tblptru	equ	0xFF8
  1444                           prodh	equ	0xFF4
  1445                           prodl	equ	0xFF3
  1446                           intcon	equ	0xFF2
  1447                           postinc0	equ	0xFEE
  1448                           wreg	equ	0xFE8
  1449                           indf2	equ	0xFDF
  1450                           postinc2	equ	0xFDE
  1451                           postdec2	equ	0xFDD
  1452                           fsr2h	equ	0xFDA
  1453                           fsr2l	equ	0xFD9
  1454                           status	equ	0xFD8
  1455                           
  1456 ;; *************** function _SYSTEM_Initialize *****************
  1457 ;; Defined at:
  1458 ;;		line 60 in file "system.c"
  1459 ;; Parameters:    Size  Location     Type
  1460 ;;  state           1    wreg     enum E3764
  1461 ;; Auto vars:     Size  Location     Type
  1462 ;;  state           1    1[BANK1 ] enum E3764
  1463 ;; Return value:  Size  Location     Type
  1464 ;;                  1    wreg      void 
  1465 ;; Registers used:
  1466 ;;		wreg, status,2, status,0, cstack
  1467 ;; Tracked objects:
  1468 ;;		On entry : 0/0
  1469 ;;		On exit  : 0/0
  1470 ;;		Unchanged: 0/0
  1471 ;; Data sizes:     COMRAM   BANK0   BANK1   BANK2   BANK3   BANK4   BANK5   BANK6   BANK7
  1472 ;;      Params:         0       0       0       0       0       0       0       0       0
  1473 ;;      Locals:         0       0       1       0       0       0       0       0       0
  1474 ;;      Temps:          0       0       0       0       0       0       0       0       0
  1475 ;;      Totals:         0       0       1       0       0       0       0       0       0
  1476 ;;Total ram usage:        1 bytes
  1477 ;; Hardware stack levels used:    1
  1478 ;; Hardware stack levels required when called:   13
  1479 ;; This function calls:
  1480 ;;		_LED_Enable
  1481 ;; This function is called by:
  1482 ;;		_main
  1483 ;; This function uses a non-reentrant model
  1484 ;;
  1485                           
  1486                           	psect	text5
  1487  002DC0                     __ptext5:
  1488                           	opt stack 0
  1489  002DC0                     _SYSTEM_Initialize:
  1490                           	opt stack 17
  1491                           
  1492                           ;incstack = 0
  1493                           ;SYSTEM_Initialize@state stored from wreg
  1494  002DC0  0101               	movlb	1	; () banked
  1495  002DC2  6F41               	movwf	SYSTEM_Initialize@state& (0+255),b
  1496                           
  1497                           ;system.c: 62: switch(state)
  1498  002DC4  D004               	goto	l4393
  1499  002DC6                     l4389:
  1500                           
  1501                           ;system.c: 65: LED_Enable(LED_D1);
  1502  002DC6  0E01               	movlw	1
  1503  002DC8  ECA7  F016         	call	_LED_Enable
  1504                           
  1505                           ;system.c: 74: }
  1506                           
  1507                           ;system.c: 73: break;
  1508                           
  1509                           ;system.c: 72: case SYSTEM_STATE_USB_RESUME:
  1510                           
  1511                           ;system.c: 70: break;
  1512                           
  1513                           ;system.c: 69: case SYSTEM_STATE_USB_SUSPEND:
  1514                           
  1515                           ;system.c: 67: break;
  1516  002DCC  0012               	return	
  1517  002DCE                     l4393:
  1518  002DCE  0101               	movlb	1	; () banked
  1519  002DD0  5141               	movf	SYSTEM_Initialize@state& (0+255),w,b
  1520                           
  1521                           ; Switch size 1, requested type "space"
  1522                           ; Number of cases is 3, Range of values is 0 to 2
  1523                           ; switch strategies available:
  1524                           ; Name         Instructions Cycles
  1525                           ; simple_byte           10     6 (average)
  1526                           ;	Chosen strategy is simple_byte
  1527  002DD2  0A00               	xorlw	0	; case 0
  1528  002DD4  B4D8               	btfsc	status,2,c
  1529  002DD6  D7F7               	goto	l4389
  1530  002DD8  0A01               	xorlw	1	; case 1
  1531  002DDA  B4D8               	btfsc	status,2,c
  1532  002DDC  0012               	return	
  1533  002DDE  0A03               	xorlw	3	; case 2
  1534  002DE0  0012               	return	
  1535  002DE2                     __end_of_SYSTEM_Initialize:
  1536                           	opt stack 0
  1537                           tblptru	equ	0xFF8
  1538                           prodh	equ	0xFF4
  1539                           prodl	equ	0xFF3
  1540                           intcon	equ	0xFF2
  1541                           postinc0	equ	0xFEE
  1542                           wreg	equ	0xFE8
  1543                           indf2	equ	0xFDF
  1544                           postinc2	equ	0xFDE
  1545                           postdec2	equ	0xFDD
  1546                           fsr2h	equ	0xFDA
  1547                           fsr2l	equ	0xFD9
  1548                           status	equ	0xFD8
  1549                           
  1550 ;; *************** function _LED_Enable *****************
  1551 ;; Defined at:
  1552 ;;		line 257 in file "leds.c"
  1553 ;; Parameters:    Size  Location     Type
  1554 ;;  led             1    wreg     enum E2
  1555 ;; Auto vars:     Size  Location     Type
  1556 ;;  led             1    0[BANK1 ] enum E2
  1557 ;; Return value:  Size  Location     Type
  1558 ;;                  1    wreg      void 
  1559 ;; Registers used:
  1560 ;;		wreg, status,2, status,0
  1561 ;; Tracked objects:
  1562 ;;		On entry : 0/0
  1563 ;;		On exit  : 0/0
  1564 ;;		Unchanged: 0/0
  1565 ;; Data sizes:     COMRAM   BANK0   BANK1   BANK2   BANK3   BANK4   BANK5   BANK6   BANK7
  1566 ;;      Params:         0       0       0       0       0       0       0       0       0
  1567 ;;      Locals:         0       0       1       0       0       0       0       0       0
  1568 ;;      Temps:          0       0       0       0       0       0       0       0       0
  1569 ;;      Totals:         0       0       1       0       0       0       0       0       0
  1570 ;;Total ram usage:        1 bytes
  1571 ;; Hardware stack levels used:    1
  1572 ;; Hardware stack levels required when called:   12
  1573 ;; This function calls:
  1574 ;;		Nothing
  1575 ;; This function is called by:
  1576 ;;		_SYSTEM_Initialize
  1577 ;; This function uses a non-reentrant model
  1578 ;;
  1579                           
  1580                           	psect	text6
  1581  002D4E                     __ptext6:
  1582                           	opt stack 0
  1583  002D4E                     _LED_Enable:
  1584                           	opt stack 17
  1585                           
  1586                           ;incstack = 0
  1587                           ;LED_Enable@led stored from wreg
  1588  002D4E  0101               	movlb	1	; () banked
  1589  002D50  6F40               	movwf	LED_Enable@led& (0+255),b
  1590                           
  1591                           ;leds.c: 259: switch(led)
  1592  002D52  D004               	goto	l4377
  1593  002D54                     l226:
  1594                           
  1595                           ; BSR set to: 1
  1596                           ;leds.c: 262: TRISBbits.TRISB0 = 0;
  1597  002D54  9093               	bcf	3987,0,c	;volatile
  1598                           
  1599                           ;leds.c: 263: break;
  1600  002D56  0012               	return	
  1601  002D58                     l228:
  1602                           
  1603                           ; BSR set to: 1
  1604                           ;leds.c: 266: TRISBbits.TRISB1 = 0;
  1605  002D58  9293               	bcf	3987,1,c	;volatile
  1606                           
  1607                           ; BSR set to: 1
  1608                           ;leds.c: 279: }
  1609                           
  1610                           ; BSR set to: 1
  1611                           ;leds.c: 278: break;
  1612                           
  1613                           ;leds.c: 277: case LED_NONE:
  1614                           
  1615                           ;leds.c: 267: break;
  1616  002D5A  0012               	return	
  1617  002D5C                     l4377:
  1618  002D5C  0101               	movlb	1	; () banked
  1619  002D5E  5140               	movf	LED_Enable@led& (0+255),w,b
  1620                           
  1621                           ; Switch size 1, requested type "space"
  1622                           ; Number of cases is 3, Range of values is 0 to 2
  1623                           ; switch strategies available:
  1624                           ; Name         Instructions Cycles
  1625                           ; simple_byte           10     6 (average)
  1626                           ;	Chosen strategy is simple_byte
  1627  002D60  0A00               	xorlw	0	; case 0
  1628  002D62  B4D8               	btfsc	status,2,c
  1629  002D64  0012               	return	
  1630  002D66  0A01               	xorlw	1	; case 1
  1631  002D68  B4D8               	btfsc	status,2,c
  1632  002D6A  D7F4               	goto	l226
  1633  002D6C  0A03               	xorlw	3	; case 2
  1634  002D6E  A4D8               	btfss	status,2,c
  1635  002D70  0012               	return	
  1636  002D72  D7F2               	goto	l228
  1637  002D74                     __end_of_LED_Enable:
  1638                           	opt stack 0
  1639                           tblptru	equ	0xFF8
  1640                           prodh	equ	0xFF4
  1641                           prodl	equ	0xFF3
  1642                           intcon	equ	0xFF2
  1643                           postinc0	equ	0xFEE
  1644                           wreg	equ	0xFE8
  1645                           indf2	equ	0xFDF
  1646                           postinc2	equ	0xFDE
  1647                           postdec2	equ	0xFDD
  1648                           fsr2h	equ	0xFDA
  1649                           fsr2l	equ	0xFD9
  1650                           status	equ	0xFD8
  1651                           
  1652 ;; *************** function _APP_DeviceCDCBasicDemoTasks *****************
  1653 ;; Defined at:
  1654 ;;		line 108 in file "main.c"
  1655 ;; Parameters:    Size  Location     Type
  1656 ;;		None
  1657 ;; Auto vars:     Size  Location     Type
  1658 ;;  i               1   15[BANK1 ] unsigned char 
  1659 ;;  numBytesRead    1   14[BANK1 ] unsigned char 
  1660 ;; Return value:  Size  Location     Type
  1661 ;;                  1    wreg      void 
  1662 ;; Registers used:
  1663 ;;		wreg, fsr1l, fsr1h, fsr2l, fsr2h, status,2, status,0, prodl, prodh, cstack
  1664 ;; Tracked objects:
  1665 ;;		On entry : 0/0
  1666 ;;		On exit  : 0/0
  1667 ;;		Unchanged: 0/0
  1668 ;; Data sizes:     COMRAM   BANK0   BANK1   BANK2   BANK3   BANK4   BANK5   BANK6   BANK7
  1669 ;;      Params:         0       0       0       0       0       0       0       0       0
  1670 ;;      Locals:         0       0       2       0       0       0       0       0       0
  1671 ;;      Temps:          0       0       1       0       0       0       0       0       0
  1672 ;;      Totals:         0       0       3       0       0       0       0       0       0
  1673 ;;Total ram usage:        3 bytes
  1674 ;; Hardware stack levels used:    1
  1675 ;; Hardware stack levels required when called:   14
  1676 ;; This function calls:
  1677 ;;		_CDCTxService
  1678 ;;		_getsUSBUSART
  1679 ;;		_putUSBUSART
  1680 ;; This function is called by:
  1681 ;;		_main
  1682 ;; This function uses a non-reentrant model
  1683 ;;
  1684                           
  1685                           	psect	text7
  1686  0015D8                     __ptext7:
  1687                           	opt stack 0
  1688  0015D8                     _APP_DeviceCDCBasicDemoTasks:
  1689                           	opt stack 16
  1690                           
  1691                           ;main.c: 113: if( (cdc_trf_state == 0) == 1)
  1692                           
  1693                           ; BSR set to: 1
  1694                           ;incstack = 0
  1695  0015D8  0100               	movlb	0	; () banked
  1696  0015DA  5196               	movf	_cdc_trf_state& (0+255),w,b
  1697  0015DC  A4D8               	btfss	status,2,c
  1698  0015DE  D0A7               	goto	l4535
  1699                           
  1700                           ; BSR set to: 0
  1701                           ;main.c: 114: {
  1702                           ;main.c: 115: uint8_t i;
  1703                           ;main.c: 116: uint8_t numBytesRead;
  1704                           ;main.c: 118: numBytesRead = getsUSBUSART(readBuffer, sizeof(readBuffer));
  1705  0015E0  0E00               	movlw	low _readBuffer
  1706  0015E2  0101               	movlb	1	; () banked
  1707  0015E4  6F47               	movwf	getsUSBUSART@buffer& (0+255),b
  1708  0015E6  0E01               	movlw	high _readBuffer
  1709  0015E8  0101               	movlb	1	; () banked
  1710  0015EA  6F48               	movwf	(getsUSBUSART@buffer+1)& (0+255),b
  1711  0015EC  0E40               	movlw	64
  1712  0015EE  0101               	movlb	1	; () banked
  1713  0015F0  6F49               	movwf	getsUSBUSART@len& (0+255),b
  1714  0015F2  EC92  F00F         	call	_getsUSBUSART	;wreg free
  1715  0015F6  0101               	movlb	1	; () banked
  1716  0015F8  6F4E               	movwf	APP_DeviceCDCBasicDemoTasks@numBytesRead& (0+255),b
  1717                           
  1718                           ; BSR set to: 1
  1719                           ;main.c: 122: for(i=0; i<numBytesRead; i++)
  1720  0015FA  0E00               	movlw	0
  1721  0015FC  0101               	movlb	1	; () banked
  1722  0015FE  6F4F               	movwf	APP_DeviceCDCBasicDemoTasks@i& (0+255),b
  1723  001600  D081               	goto	l4529
  1724  001602                     l132:
  1725                           
  1726                           ; BSR set to: 1
  1727                           ;main.c: 130: T0CONbits.TMR0ON = 0;
  1728  001602  9ED5               	bcf	4053,7,c	;volatile
  1729                           
  1730                           ;main.c: 131: break;
  1731  001604  D07D               	goto	l4527
  1732  001606                     l134:
  1733                           
  1734                           ; BSR set to: 1
  1735                           ;main.c: 134: ADCON0bits.GO_DONE = 1;
  1736  001606  82C2               	bsf	4034,1,c	;volatile
  1737                           
  1738                           ; BSR set to: 1
  1739                           ;main.c: 135: timerLow = 0x00;
  1740  001608  0E00               	movlw	0
  1741  00160A  6E48               	movwf	_timerLow,c
  1742                           
  1743                           ;main.c: 136: timerHigh = 0x00;
  1744  00160C  0E00               	movlw	0
  1745  00160E  6E47               	movwf	_timerHigh,c
  1746  001610  D013               	goto	l4505
  1747  001612                     l4495:
  1748                           
  1749                           ; BSR set to: 1
  1750                           ;main.c: 138: TMR0L = timerLow;
  1751  001612  C048  FFD6         	movff	_timerLow,4054	;volatile
  1752  001616  D013               	goto	l4509
  1753  001618                     l4499:
  1754                           
  1755                           ; BSR set to: 1
  1756                           ;main.c: 140: writeBuffer[i] = timerHigh;
  1757  001618  0101               	movlb	1	; () banked
  1758  00161A  514F               	movf	APP_DeviceCDCBasicDemoTasks@i& (0+255),w,b
  1759  00161C  0D01               	mullw	1
  1760  00161E  0E98               	movlw	low _writeBuffer
  1761  001620  24F3               	addwf	prodl,w,c
  1762  001622  6ED9               	movwf	fsr2l,c
  1763  001624  0E00               	movlw	high _writeBuffer
  1764  001626  20F4               	addwfc	prodh,w,c
  1765  001628  6EDA               	movwf	fsr2h,c
  1766  00162A  C047  FFDF         	movff	_timerHigh,indf2
  1767                           
  1768                           ;main.c: 141: break;
  1769  00162E  D068               	goto	l4527
  1770  001630                     l135:
  1771                           
  1772                           ; BSR set to: 1
  1773                           ;main.c: 143: ADCON0bits.GO_DONE = 1;
  1774  001630  82C2               	bsf	4034,1,c	;volatile
  1775                           
  1776                           ; BSR set to: 1
  1777                           ;main.c: 144: timerLow = 0x00;
  1778  001632  0E00               	movlw	0
  1779  001634  6E48               	movwf	_timerLow,c
  1780                           
  1781                           ; BSR set to: 1
  1782                           ;main.c: 145: timerHigh = 0xFF;
  1783  001636  6847               	setf	_timerHigh,c
  1784  001638                     l4505:
  1785                           
  1786                           ; BSR set to: 1
  1787                           ;main.c: 146: TMR0H = timerHigh;
  1788  001638  C047  FFD7         	movff	_timerHigh,4055	;volatile
  1789  00163C  D7EA               	goto	l4495
  1790  00163E                     l4509:
  1791                           
  1792                           ; BSR set to: 1
  1793                           ;main.c: 148: T0CONbits.TMR0ON = 1;
  1794  00163E  8ED5               	bsf	4053,7,c	;volatile
  1795  001640  D7EB               	goto	l4499
  1796  001642                     l137:
  1797                           
  1798                           ; BSR set to: 1
  1799                           ;main.c: 152: case 0x31:
  1800                           ;main.c: 153: PORTBbits.RB7 = 1;
  1801  001642  8E81               	bsf	3969,7,c	;volatile
  1802                           
  1803                           ;main.c: 154: PORTBbits.RB6 = 0;
  1804  001644  9C81               	bcf	3969,6,c	;volatile
  1805  001646  D017               	goto	L1
  1806  001648                     l4513:
  1807                           
  1808                           ; BSR set to: 1
  1809                           ;main.c: 156: writeBuffer[i] = readBuffer[i];
  1810  001648  0101               	movlb	1	; () banked
  1811  00164A  514F               	movf	APP_DeviceCDCBasicDemoTasks@i& (0+255),w,b
  1812  00164C  0D01               	mullw	1
  1813  00164E  0E00               	movlw	low _readBuffer
  1814  001650  24F3               	addwf	prodl,w,c
  1815  001652  6ED9               	movwf	fsr2l,c
  1816  001654  0E01               	movlw	high _readBuffer
  1817  001656  20F4               	addwfc	prodh,w,c
  1818  001658  6EDA               	movwf	fsr2h,c
  1819  00165A  0101               	movlb	1	; () banked
  1820  00165C  514F               	movf	APP_DeviceCDCBasicDemoTasks@i& (0+255),w,b
  1821  00165E  0D01               	mullw	1
  1822  001660  0E98               	movlw	low _writeBuffer
  1823  001662  24F3               	addwf	prodl,w,c
  1824  001664  6EE1               	movwf	fsr1l,c
  1825  001666  0E00               	movlw	high _writeBuffer
  1826  001668  20F4               	addwfc	prodh,w,c
  1827  00166A  6EE2               	movwf	fsr1h,c
  1828  00166C  CFDF FFE7          	movff	indf2,indf1
  1829                           
  1830                           ;main.c: 157: break;
  1831  001670  D047               	goto	l4527
  1832  001672                     l138:
  1833                           
  1834                           ; BSR set to: 1
  1835                           ;main.c: 159: PORTBbits.RB7 = 1;
  1836  001672  8E81               	bsf	3969,7,c	;volatile
  1837                           
  1838                           ;main.c: 160: PORTBbits.RB6 = 1;
  1839  001674  8C81               	bsf	3969,6,c	;volatile
  1840  001676                     L1:
  1841                           
  1842                           ;main.c: 161: PORTBbits.RB5 = 0;
  1843  001676  9A81               	bcf	3969,5,c	;volatile
  1844  001678  D7E7               	goto	l4513
  1845  00167A                     l139:
  1846                           
  1847                           ; BSR set to: 1
  1848                           ;main.c: 165: PORTBbits.RB7 = 1;
  1849  00167A  8E81               	bsf	3969,7,c	;volatile
  1850                           
  1851                           ;main.c: 166: PORTBbits.RB6 = 1;
  1852  00167C  8C81               	bsf	3969,6,c	;volatile
  1853                           
  1854                           ;main.c: 167: PORTBbits.RB5 = 1;
  1855  00167E  8A81               	bsf	3969,5,c	;volatile
  1856                           
  1857                           ; BSR set to: 1
  1858                           
  1859                           ;main.c: 170: case 0x0D:
  1860                           
  1861                           ;main.c: 169: break;
  1862                           
  1863                           ; BSR set to: 1
  1864                           ;main.c: 168: writeBuffer[i] = readBuffer[i];
  1865  001680  D7E3               	goto	l4513
  1866  001682                     l141:
  1867                           
  1868                           ; BSR set to: 1
  1869                           ;main.c: 179: PORTBbits.RB7 = 0;
  1870  001682  9E81               	bcf	3969,7,c	;volatile
  1871                           
  1872                           ;main.c: 180: PORTBbits.RB6 = 0;
  1873  001684  9C81               	bcf	3969,6,c	;volatile
  1874                           
  1875                           ;main.c: 181: PORTBbits.RB5 = 0;
  1876  001686  9A81               	bcf	3969,5,c	;volatile
  1877                           
  1878                           ; BSR set to: 1
  1879                           ;main.c: 182: writeBuffer[i] = readBuffer[i] + 1;
  1880  001688  0101               	movlb	1	; () banked
  1881  00168A  514F               	movf	APP_DeviceCDCBasicDemoTasks@i& (0+255),w,b
  1882  00168C  0D01               	mullw	1
  1883  00168E  0E98               	movlw	low _writeBuffer
  1884  001690  24F3               	addwf	prodl,w,c
  1885  001692  6ED9               	movwf	fsr2l,c
  1886  001694  0E00               	movlw	high _writeBuffer
  1887  001696  20F4               	addwfc	prodh,w,c
  1888  001698  6EDA               	movwf	fsr2h,c
  1889  00169A  0101               	movlb	1	; () banked
  1890  00169C  514F               	movf	APP_DeviceCDCBasicDemoTasks@i& (0+255),w,b
  1891  00169E  0D01               	mullw	1
  1892  0016A0  0E00               	movlw	low _readBuffer
  1893  0016A2  24F3               	addwf	prodl,w,c
  1894  0016A4  6EE1               	movwf	fsr1l,c
  1895  0016A6  0E01               	movlw	high _readBuffer
  1896  0016A8  20F4               	addwfc	prodh,w,c
  1897  0016AA  6EE2               	movwf	fsr1h,c
  1898  0016AC  50E7               	movf	indf1,w,c
  1899  0016AE  0101               	movlb	1	; () banked
  1900  0016B0  6F4D               	movwf	??_APP_DeviceCDCBasicDemoTasks& (0+255),b
  1901  0016B2  0101               	movlb	1	; () banked
  1902  0016B4  294D               	incf	??_APP_DeviceCDCBasicDemoTasks& (0+255),w,b
  1903  0016B6  6EDF               	movwf	indf2,c
  1904                           
  1905                           ; BSR set to: 1
  1906                           ;main.c: 184: }
  1907                           
  1908                           ;main.c: 183: break;
  1909  0016B8  D023               	goto	l4527
  1910  0016BA                     l4525:
  1911                           
  1912                           ; BSR set to: 1
  1913  0016BA  0101               	movlb	1	; () banked
  1914  0016BC  514F               	movf	APP_DeviceCDCBasicDemoTasks@i& (0+255),w,b
  1915  0016BE  0D01               	mullw	1
  1916  0016C0  0E00               	movlw	low _readBuffer
  1917  0016C2  24F3               	addwf	prodl,w,c
  1918  0016C4  6ED9               	movwf	fsr2l,c
  1919  0016C6  0E01               	movlw	high _readBuffer
  1920  0016C8  20F4               	addwfc	prodh,w,c
  1921  0016CA  6EDA               	movwf	fsr2h,c
  1922  0016CC  50DF               	movf	indf2,w,c
  1923                           
  1924                           ; Switch size 1, requested type "space"
  1925                           ; Number of cases is 8, Range of values is 10 to 57
  1926                           ; switch strategies available:
  1927                           ; Name         Instructions Cycles
  1928                           ; simple_byte           25    13 (average)
  1929                           ;	Chosen strategy is simple_byte
  1930  0016CE  0A0A               	xorlw	10	; case 10
  1931  0016D0  B4D8               	btfsc	status,2,c
  1932  0016D2  D7B7               	goto	l137
  1933  0016D4  0A07               	xorlw	7	; case 13
  1934  0016D6  B4D8               	btfsc	status,2,c
  1935  0016D8  D7B7               	goto	l4513
  1936  0016DA  0A3D               	xorlw	61	; case 48
  1937  0016DC  B4D8               	btfsc	status,2,c
  1938  0016DE  D791               	goto	l132
  1939  0016E0  0A01               	xorlw	1	; case 49
  1940  0016E2  B4D8               	btfsc	status,2,c
  1941  0016E4  D7AE               	goto	l137
  1942  0016E6  0A03               	xorlw	3	; case 50
  1943  0016E8  B4D8               	btfsc	status,2,c
  1944  0016EA  D7C3               	goto	l138
  1945  0016EC  0A01               	xorlw	1	; case 51
  1946  0016EE  B4D8               	btfsc	status,2,c
  1947  0016F0  D7C4               	goto	l139
  1948  0016F2  0A0B               	xorlw	11	; case 56
  1949  0016F4  B4D8               	btfsc	status,2,c
  1950  0016F6  D79C               	goto	l135
  1951  0016F8  0A01               	xorlw	1	; case 57
  1952  0016FA  B4D8               	btfsc	status,2,c
  1953  0016FC  D784               	goto	l134
  1954  0016FE  D7C1               	goto	l141
  1955  001700                     l4527:
  1956                           
  1957                           ; BSR set to: 1
  1958  001700  0101               	movlb	1	; () banked
  1959  001702  2B4F               	incf	APP_DeviceCDCBasicDemoTasks@i& (0+255),f,b
  1960  001704                     l4529:
  1961                           
  1962                           ; BSR set to: 1
  1963  001704  0101               	movlb	1	; () banked
  1964  001706  514E               	movf	APP_DeviceCDCBasicDemoTasks@numBytesRead& (0+255),w,b
  1965  001708  0101               	movlb	1	; () banked
  1966  00170A  5D4F               	subwf	APP_DeviceCDCBasicDemoTasks@i& (0+255),w,b
  1967  00170C  A0D8               	btfss	status,0,c
  1968  00170E  D7D5               	goto	l4525
  1969                           
  1970                           ; BSR set to: 1
  1971                           ;main.c: 185: }
  1972                           ;main.c: 187: if(numBytesRead > 0)
  1973                           
  1974                           ; BSR set to: 1
  1975  001710  0101               	movlb	1	; () banked
  1976  001712  514E               	movf	APP_DeviceCDCBasicDemoTasks@numBytesRead& (0+255),w,b
  1977  001714  0101               	movlb	1	; () banked
  1978  001716  B4D8               	btfsc	status,2,c
  1979  001718  D00A               	goto	l4535
  1980                           
  1981                           ; BSR set to: 1
  1982                           ;main.c: 188: {
  1983                           ;main.c: 192: putUSBUSART(writeBuffer,numBytesRead);
  1984  00171A  0E98               	movlw	low _writeBuffer
  1985  00171C  0101               	movlb	1	; () banked
  1986  00171E  6F40               	movwf	putUSBUSART@data& (0+255),b
  1987  001720  0E00               	movlw	high _writeBuffer
  1988  001722  0101               	movlb	1	; () banked
  1989  001724  6F41               	movwf	(putUSBUSART@data+1)& (0+255),b
  1990  001726  C14E  F142         	movff	APP_DeviceCDCBasicDemoTasks@numBytesRead,putUSBUSART@length
  1991  00172A  ECBA  F016         	call	_putUSBUSART	;wreg free
  1992  00172E                     l4535:
  1993                           
  1994                           ;main.c: 196: }
  1995                           ;main.c: 197: }
  1996                           ;main.c: 199: CDCTxService();
  1997  00172E  EC28  F00A         	call	_CDCTxService	;wreg free
  1998  001732  0012               	return		;funcret
  1999  001734                     __end_of_APP_DeviceCDCBasicDemoTasks:
  2000                           	opt stack 0
  2001                           tblptru	equ	0xFF8
  2002                           prodh	equ	0xFF4
  2003                           prodl	equ	0xFF3
  2004                           intcon	equ	0xFF2
  2005                           postinc0	equ	0xFEE
  2006                           wreg	equ	0xFE8
  2007                           indf1	equ	0xFE7
  2008                           fsr1h	equ	0xFE2
  2009                           fsr1l	equ	0xFE1
  2010                           indf2	equ	0xFDF
  2011                           postinc2	equ	0xFDE
  2012                           postdec2	equ	0xFDD
  2013                           fsr2h	equ	0xFDA
  2014                           fsr2l	equ	0xFD9
  2015                           status	equ	0xFD8
  2016                           
  2017 ;; *************** function _putUSBUSART *****************
  2018 ;; Defined at:
  2019 ;;		line 512 in file "usb_device_cdc.c"
  2020 ;; Parameters:    Size  Location     Type
  2021 ;;  data            2    0[BANK1 ] PTR unsigned char 
  2022 ;;		 -> writeBuffer(64), ad(3), 
  2023 ;;  length          1    2[BANK1 ] unsigned char 
  2024 ;; Auto vars:     Size  Location     Type
  2025 ;;		None
  2026 ;; Return value:  Size  Location     Type
  2027 ;;                  1    wreg      void 
  2028 ;; Registers used:
  2029 ;;		wreg, status,2, status,0
  2030 ;; Tracked objects:
  2031 ;;		On entry : 0/0
  2032 ;;		On exit  : 0/0
  2033 ;;		Unchanged: 0/0
  2034 ;; Data sizes:     COMRAM   BANK0   BANK1   BANK2   BANK3   BANK4   BANK5   BANK6   BANK7
  2035 ;;      Params:         0       0       3       0       0       0       0       0       0
  2036 ;;      Locals:         0       0       0       0       0       0       0       0       0
  2037 ;;      Temps:          0       0       0       0       0       0       0       0       0
  2038 ;;      Totals:         0       0       3       0       0       0       0       0       0
  2039 ;;Total ram usage:        3 bytes
  2040 ;; Hardware stack levels used:    1
  2041 ;; Hardware stack levels required when called:   12
  2042 ;; This function calls:
  2043 ;;		Nothing
  2044 ;; This function is called by:
  2045 ;;		_APP_DeviceCDCBasicDemoTasks
  2046 ;; This function uses a non-reentrant model
  2047 ;;
  2048                           
  2049                           	psect	text8
  2050  002D74                     __ptext8:
  2051                           	opt stack 0
  2052  002D74                     _putUSBUSART:
  2053                           	opt stack 17
  2054                           
  2055                           ;usb_device_cdc.c: 537: {PIE2bits.USBIE = 0;};
  2056                           
  2057                           ;incstack = 0
  2058  002D74  9AA0               	bcf	4000,5,c	;volatile
  2059                           
  2060                           ;usb_device_cdc.c: 538: if(cdc_trf_state == 0)
  2061  002D76  0100               	movlb	0	; () banked
  2062  002D78  5196               	movf	_cdc_trf_state& (0+255),w,b
  2063  002D7A  A4D8               	btfss	status,2,c
  2064  002D7C  D00C               	goto	l4273
  2065                           
  2066                           ; BSR set to: 0
  2067                           ;usb_device_cdc.c: 539: {
  2068                           ;usb_device_cdc.c: 540: { pCDCSrc.bRam = (uint8_t*)data; cdc_tx_len = length; cdc_mem_ty
      +                          pe = 0x01; cdc_trf_state = 1; };
  2069  002D7E  C140  F08D         	movff	putUSBUSART@data,_pCDCSrc
  2070  002D82  C141  F08E         	movff	putUSBUSART@data+1,_pCDCSrc+1
  2071                           
  2072                           ; BSR set to: 0
  2073  002D86  C142  F097         	movff	putUSBUSART@length,_cdc_tx_len
  2074                           
  2075                           ; BSR set to: 0
  2076  002D8A  0E01               	movlw	1
  2077  002D8C  0100               	movlb	0	; () banked
  2078  002D8E  6F94               	movwf	_cdc_mem_type& (0+255),b
  2079                           
  2080                           ; BSR set to: 0
  2081  002D90  0E01               	movlw	1
  2082  002D92  0100               	movlb	0	; () banked
  2083  002D94  6F96               	movwf	_cdc_trf_state& (0+255),b
  2084  002D96                     l4273:
  2085                           
  2086                           ; BSR set to: 0
  2087                           ;usb_device_cdc.c: 541: }
  2088                           ;usb_device_cdc.c: 542: {PIE2bits.USBIE = 1;};
  2089  002D96  8AA0               	bsf	4000,5,c	;volatile
  2090                           
  2091                           ; BSR set to: 0
  2092  002D98  0012               	return		;funcret
  2093  002D9A                     __end_of_putUSBUSART:
  2094                           	opt stack 0
  2095                           tblptru	equ	0xFF8
  2096                           prodh	equ	0xFF4
  2097                           prodl	equ	0xFF3
  2098                           intcon	equ	0xFF2
  2099                           postinc0	equ	0xFEE
  2100                           wreg	equ	0xFE8
  2101                           indf1	equ	0xFE7
  2102                           fsr1h	equ	0xFE2
  2103                           fsr1l	equ	0xFE1
  2104                           indf2	equ	0xFDF
  2105                           postinc2	equ	0xFDE
  2106                           postdec2	equ	0xFDD
  2107                           fsr2h	equ	0xFDA
  2108                           fsr2l	equ	0xFD9
  2109                           status	equ	0xFD8
  2110                           
  2111 ;; *************** function _getsUSBUSART *****************
  2112 ;; Defined at:
  2113 ;;		line 441 in file "usb_device_cdc.c"
  2114 ;; Parameters:    Size  Location     Type
  2115 ;;  buffer          2    7[BANK1 ] PTR unsigned char 
  2116 ;;		 -> readBuffer(64), 
  2117 ;;  len             1    9[BANK1 ] unsigned char 
  2118 ;; Auto vars:     Size  Location     Type
  2119 ;;		None
  2120 ;; Return value:  Size  Location     Type
  2121 ;;                  1    wreg      unsigned char 
  2122 ;; Registers used:
  2123 ;;		wreg, fsr1l, fsr1h, fsr2l, fsr2h, status,2, status,0, prodl, prodh, cstack
  2124 ;; Tracked objects:
  2125 ;;		On entry : 0/0
  2126 ;;		On exit  : 0/0
  2127 ;;		Unchanged: 0/0
  2128 ;; Data sizes:     COMRAM   BANK0   BANK1   BANK2   BANK3   BANK4   BANK5   BANK6   BANK7
  2129 ;;      Params:         0       0       3       0       0       0       0       0       0
  2130 ;;      Locals:         0       0       2       0       0       0       0       0       0
  2131 ;;      Temps:          0       0       1       0       0       0       0       0       0
  2132 ;;      Totals:         0       0       6       0       0       0       0       0       0
  2133 ;;Total ram usage:        6 bytes
  2134 ;; Hardware stack levels used:    1
  2135 ;; Hardware stack levels required when called:   13
  2136 ;; This function calls:
  2137 ;;		_USBTransferOnePacket
  2138 ;; This function is called by:
  2139 ;;		_APP_DeviceCDCBasicDemoTasks
  2140 ;; This function uses a non-reentrant model
  2141 ;;
  2142                           
  2143                           	psect	text9
  2144  001F24                     __ptext9:
  2145                           	opt stack 0
  2146  001F24                     _getsUSBUSART:
  2147                           	opt stack 16
  2148                           
  2149                           ;usb_device_cdc.c: 443: cdc_rx_len = 0;
  2150                           
  2151                           ; BSR set to: 0
  2152                           ;incstack = 0
  2153  001F24  0E00               	movlw	0
  2154  001F26  0100               	movlb	0	; () banked
  2155  001F28  6F95               	movwf	_cdc_rx_len& (0+255),b
  2156                           
  2157                           ; BSR set to: 0
  2158                           ;usb_device_cdc.c: 445: if(!(CDCDataOutHandle==0?0:((volatile BDT_ENTRY*)CDCDataOutHandl
      +                          e)->STAT.UOWN))
  2159  001F2A  0100               	movlb	0	; () banked
  2160  001F2C  5192               	movf	_CDCDataOutHandle& (0+255),w,b
  2161  001F2E  0100               	movlb	0	; () banked
  2162  001F30  1193               	iorwf	(_CDCDataOutHandle+1)& (0+255),w,b
  2163  001F32  B4D8               	btfsc	status,2,c
  2164  001F34  D013               	goto	l4281
  2165                           
  2166                           ; BSR set to: 0
  2167  001F36  C092  FFD9         	movff	_CDCDataOutHandle,fsr2l
  2168  001F3A  C093  FFDA         	movff	_CDCDataOutHandle+1,fsr2h
  2169  001F3E  0100               	movlb	0	; () banked
  2170  001F40  AEDF               	btfss	indf2,7,c
  2171  001F42  D004               	goto	u3440
  2172  001F44  0101               	movlb	1	; () banked
  2173  001F46  6B4A               	clrf	??_getsUSBUSART& (0+255),b
  2174  001F48  2B4A               	incf	??_getsUSBUSART& (0+255),f,b
  2175  001F4A  D002               	goto	u3448
  2176  001F4C                     u3440:
  2177  001F4C  0101               	movlb	1	; () banked
  2178  001F4E  6B4A               	clrf	??_getsUSBUSART& (0+255),b
  2179  001F50                     u3448:
  2180  001F50  0101               	movlb	1	; () banked
  2181  001F52  514A               	movf	??_getsUSBUSART& (0+255),w,b
  2182  001F54  0101               	movlb	1	; () banked
  2183  001F56  6F4B               	movwf	_getsUSBUSART$2513& (0+255),b
  2184  001F58  6B4C               	clrf	(_getsUSBUSART$2513+1)& (0+255),b
  2185  001F5A  D005               	goto	l4283
  2186  001F5C                     l4281:
  2187  001F5C  0E00               	movlw	0
  2188  001F5E  0101               	movlb	1	; () banked
  2189  001F60  6F4C               	movwf	(_getsUSBUSART$2513+1)& (0+255),b
  2190  001F62  0E00               	movlw	0
  2191  001F64  6F4B               	movwf	_getsUSBUSART$2513& (0+255),b
  2192  001F66                     l4283:
  2193                           
  2194                           ; BSR set to: 1
  2195  001F66  0101               	movlb	1	; () banked
  2196  001F68  514B               	movf	_getsUSBUSART$2513& (0+255),w,b
  2197  001F6A  0101               	movlb	1	; () banked
  2198  001F6C  114C               	iorwf	(_getsUSBUSART$2513+1)& (0+255),w,b
  2199  001F6E  A4D8               	btfss	status,2,c
  2200  001F70  D04B               	goto	l4299
  2201                           
  2202                           ; BSR set to: 1
  2203                           ;usb_device_cdc.c: 446: {
  2204                           ;usb_device_cdc.c: 451: if(len > (((volatile BDT_ENTRY*)CDCDataOutHandle)->CNT))
  2205  001F72  0100               	movlb	0	; () banked
  2206  001F74  EE20 F001          	lfsr	2,1
  2207  001F78  5192               	movf	_CDCDataOutHandle& (0+255),w,b
  2208  001F7A  26D9               	addwf	fsr2l,f,c
  2209  001F7C  5193               	movf	(_CDCDataOutHandle+1)& (0+255),w,b
  2210  001F7E  22DA               	addwfc	fsr2h,f,c
  2211  001F80  0101               	movlb	1	; () banked
  2212  001F82  5149               	movf	getsUSBUSART@len& (0+255),w,b
  2213  001F84  5CDE               	subwf	postinc2,w,c
  2214  001F86  B0D8               	btfsc	status,0,c
  2215  001F88  D00A               	goto	l4289
  2216                           
  2217                           ; BSR set to: 1
  2218                           ;usb_device_cdc.c: 452: len = (((volatile BDT_ENTRY*)CDCDataOutHandle)->CNT);
  2219  001F8A  0100               	movlb	0	; () banked
  2220  001F8C  EE20 F001          	lfsr	2,1
  2221  001F90  5192               	movf	_CDCDataOutHandle& (0+255),w,b
  2222  001F92  26D9               	addwf	fsr2l,f,c
  2223  001F94  5193               	movf	(_CDCDataOutHandle+1)& (0+255),w,b
  2224  001F96  22DA               	addwfc	fsr2h,f,c
  2225  001F98  50DF               	movf	indf2,w,c
  2226  001F9A  0101               	movlb	1	; () banked
  2227  001F9C  6F49               	movwf	getsUSBUSART@len& (0+255),b
  2228  001F9E                     l4289:
  2229                           
  2230                           ; BSR set to: 1
  2231                           ;usb_device_cdc.c: 457: for(cdc_rx_len = 0; cdc_rx_len < len; cdc_rx_len++)
  2232  001F9E  0E00               	movlw	0
  2233  001FA0  0100               	movlb	0	; () banked
  2234  001FA2  6F95               	movwf	_cdc_rx_len& (0+255),b
  2235  001FA4  D018               	goto	l4295
  2236  001FA6                     l4291:
  2237                           
  2238                           ; BSR set to: 0
  2239                           ;usb_device_cdc.c: 458: buffer[cdc_rx_len] = cdc_data_rx[cdc_rx_len];
  2240  001FA6  0100               	movlb	0	; () banked
  2241  001FA8  5195               	movf	_cdc_rx_len& (0+255),w,b
  2242  001FAA  0D01               	mullw	1
  2243  001FAC  0E40               	movlw	64
  2244  001FAE  24F3               	addwf	prodl,w,c
  2245  001FB0  6ED9               	movwf	fsr2l,c
  2246  001FB2  0E05               	movlw	5
  2247  001FB4  20F4               	addwfc	prodh,w,c
  2248  001FB6  6EDA               	movwf	fsr2h,c
  2249  001FB8  0100               	movlb	0	; () banked
  2250  001FBA  5195               	movf	_cdc_rx_len& (0+255),w,b
  2251  001FBC  0D01               	mullw	1
  2252  001FBE  50F3               	movf	prodl,w,c
  2253  001FC0  0101               	movlb	1	; () banked
  2254  001FC2  2547               	addwf	getsUSBUSART@buffer& (0+255),w,b
  2255  001FC4  6EE1               	movwf	fsr1l,c
  2256  001FC6  50F4               	movf	prodh,w,c
  2257  001FC8  0101               	movlb	1	; () banked
  2258  001FCA  2148               	addwfc	(getsUSBUSART@buffer+1)& (0+255),w,b
  2259  001FCC  6EE2               	movwf	fsr1h,c
  2260  001FCE  CFDF FFE7          	movff	indf2,indf1
  2261                           
  2262                           ; BSR set to: 1
  2263  001FD2  0100               	movlb	0	; () banked
  2264  001FD4  2B95               	incf	_cdc_rx_len& (0+255),f,b
  2265  001FD6                     l4295:
  2266                           
  2267                           ; BSR set to: 0
  2268  001FD6  0101               	movlb	1	; () banked
  2269  001FD8  5149               	movf	getsUSBUSART@len& (0+255),w,b
  2270  001FDA  0100               	movlb	0	; () banked
  2271  001FDC  5D95               	subwf	_cdc_rx_len& (0+255),w,b
  2272  001FDE  A0D8               	btfss	status,0,c
  2273  001FE0  D7E2               	goto	l4291
  2274                           
  2275                           ; BSR set to: 0
  2276                           ;usb_device_cdc.c: 464: CDCDataOutHandle = USBTransferOnePacket(2,0,(uint8_t*)&cdc_data_
      +                          rx,sizeof(cdc_data_rx));
  2277                           
  2278                           ; BSR set to: 0
  2279  001FE2  0E00               	movlw	0
  2280  001FE4  0101               	movlb	1	; () banked
  2281  001FE6  6F40               	movwf	USBTransferOnePacket@dir& (0+255),b
  2282  001FE8  0E40               	movlw	64
  2283  001FEA  0101               	movlb	1	; () banked
  2284  001FEC  6F41               	movwf	USBTransferOnePacket@data& (0+255),b
  2285  001FEE  0E05               	movlw	5
  2286  001FF0  0101               	movlb	1	; () banked
  2287  001FF2  6F42               	movwf	(USBTransferOnePacket@data+1)& (0+255),b
  2288  001FF4  0E40               	movlw	64
  2289  001FF6  0101               	movlb	1	; () banked
  2290  001FF8  6F43               	movwf	USBTransferOnePacket@len& (0+255),b
  2291  001FFA  0E02               	movlw	2
  2292  001FFC  EC78  F010         	call	_USBTransferOnePacket
  2293  002000  C140  F092         	movff	?_USBTransferOnePacket,_CDCDataOutHandle
  2294  002004  C141  F093         	movff	?_USBTransferOnePacket+1,_CDCDataOutHandle+1
  2295  002008                     l4299:
  2296                           
  2297                           ;usb_device_cdc.c: 466: }
  2298                           ;usb_device_cdc.c: 468: return cdc_rx_len;
  2299  002008  0100               	movlb	0	; () banked
  2300  00200A  5195               	movf	_cdc_rx_len& (0+255),w,b
  2301  00200C  0012               	return	
  2302  00200E                     __end_of_getsUSBUSART:
  2303                           	opt stack 0
  2304                           tblptru	equ	0xFF8
  2305                           prodh	equ	0xFF4
  2306                           prodl	equ	0xFF3
  2307                           intcon	equ	0xFF2
  2308                           postinc0	equ	0xFEE
  2309                           wreg	equ	0xFE8
  2310                           indf1	equ	0xFE7
  2311                           fsr1h	equ	0xFE2
  2312                           fsr1l	equ	0xFE1
  2313                           indf2	equ	0xFDF
  2314                           postinc2	equ	0xFDE
  2315                           postdec2	equ	0xFDD
  2316                           fsr2h	equ	0xFDA
  2317                           fsr2l	equ	0xFD9
  2318                           status	equ	0xFD8
  2319                           
  2320 ;; *************** function _CDCTxService *****************
  2321 ;; Defined at:
  2322 ;;		line 792 in file "usb_device_cdc.c"
  2323 ;; Parameters:    Size  Location     Type
  2324 ;;		None
  2325 ;; Auto vars:     Size  Location     Type
  2326 ;;  byte_to_send    1   11[BANK1 ] unsigned char 
  2327 ;;  i               1   10[BANK1 ] unsigned char 
  2328 ;; Return value:  Size  Location     Type
  2329 ;;                  1    wreg      void 
  2330 ;; Registers used:
  2331 ;;		wreg, fsr1l, fsr1h, fsr2l, fsr2h, status,2, status,0, prodl, prodh, cstack
  2332 ;; Tracked objects:
  2333 ;;		On entry : 0/0
  2334 ;;		On exit  : 0/0
  2335 ;;		Unchanged: 0/0
  2336 ;; Data sizes:     COMRAM   BANK0   BANK1   BANK2   BANK3   BANK4   BANK5   BANK6   BANK7
  2337 ;;      Params:         0       0       0       0       0       0       0       0       0
  2338 ;;      Locals:         0       0       4       0       0       0       0       0       0
  2339 ;;      Temps:          0       0       1       0       0       0       0       0       0
  2340 ;;      Totals:         0       0       5       0       0       0       0       0       0
  2341 ;;Total ram usage:        5 bytes
  2342 ;; Hardware stack levels used:    1
  2343 ;; Hardware stack levels required when called:   13
  2344 ;; This function calls:
  2345 ;;		_USBTransferOnePacket
  2346 ;; This function is called by:
  2347 ;;		_APP_DeviceCDCBasicDemoTasks
  2348 ;; This function uses a non-reentrant model
  2349 ;;
  2350                           
  2351                           	psect	text10
  2352  001450                     __ptext10:
  2353                           	opt stack 0
  2354  001450                     _CDCTxService:
  2355                           	opt stack 16
  2356                           
  2357                           ;usb_device_cdc.c: 794: uint8_t byte_to_send;
  2358                           ;usb_device_cdc.c: 795: uint8_t i;
  2359                           ;usb_device_cdc.c: 797: {PIE2bits.USBIE = 0;};
  2360                           
  2361                           ; BSR set to: 0
  2362                           ;incstack = 0
  2363  001450  9AA0               	bcf	4000,5,c	;volatile
  2364                           
  2365                           ;usb_device_cdc.c: 799: {};
  2366                           ;usb_device_cdc.c: 801: if((CDCDataInHandle==0?0:((volatile BDT_ENTRY*)CDCDataInHandle)-
      +                          >STAT.UOWN))
  2367  001452  0100               	movlb	0	; () banked
  2368  001454  5190               	movf	_CDCDataInHandle& (0+255),w,b
  2369  001456  0100               	movlb	0	; () banked
  2370  001458  1191               	iorwf	(_CDCDataInHandle+1)& (0+255),w,b
  2371  00145A  B4D8               	btfsc	status,2,c
  2372  00145C  D013               	goto	l4309
  2373                           
  2374                           ; BSR set to: 0
  2375  00145E  C090  FFD9         	movff	_CDCDataInHandle,fsr2l
  2376  001462  C091  FFDA         	movff	_CDCDataInHandle+1,fsr2h
  2377  001466  0100               	movlb	0	; () banked
  2378  001468  AEDF               	btfss	indf2,7,c
  2379  00146A  D004               	goto	u3490
  2380  00146C  0101               	movlb	1	; () banked
  2381  00146E  6B47               	clrf	??_CDCTxService& (0+255),b
  2382  001470  2B47               	incf	??_CDCTxService& (0+255),f,b
  2383  001472  D002               	goto	u3498
  2384  001474                     u3490:
  2385  001474  0101               	movlb	1	; () banked
  2386  001476  6B47               	clrf	??_CDCTxService& (0+255),b
  2387  001478                     u3498:
  2388  001478  0101               	movlb	1	; () banked
  2389  00147A  5147               	movf	??_CDCTxService& (0+255),w,b
  2390  00147C  0101               	movlb	1	; () banked
  2391  00147E  6F48               	movwf	_CDCTxService$2561& (0+255),b
  2392  001480  6B49               	clrf	(_CDCTxService$2561+1)& (0+255),b
  2393  001482  D005               	goto	l4311
  2394  001484                     l4309:
  2395  001484  0E00               	movlw	0
  2396  001486  0101               	movlb	1	; () banked
  2397  001488  6F49               	movwf	(_CDCTxService$2561+1)& (0+255),b
  2398  00148A  0E00               	movlw	0
  2399  00148C  6F48               	movwf	_CDCTxService$2561& (0+255),b
  2400  00148E                     l4311:
  2401                           
  2402                           ; BSR set to: 1
  2403  00148E  0101               	movlb	1	; () banked
  2404  001490  5148               	movf	_CDCTxService$2561& (0+255),w,b
  2405  001492  0101               	movlb	1	; () banked
  2406  001494  1149               	iorwf	(_CDCTxService$2561+1)& (0+255),w,b
  2407  001496  B4D8               	btfsc	status,2,c
  2408  001498  D002               	goto	l4315
  2409                           
  2410                           ; BSR set to: 1
  2411                           ;usb_device_cdc.c: 802: {
  2412                           ;usb_device_cdc.c: 803: {PIE2bits.USBIE = 1;};
  2413  00149A  8AA0               	bsf	4000,5,c	;volatile
  2414                           
  2415                           ;usb_device_cdc.c: 804: return;
  2416  00149C  0012               	return	
  2417  00149E                     l4315:
  2418                           
  2419                           ; BSR set to: 1
  2420                           ;usb_device_cdc.c: 805: }
  2421                           ;usb_device_cdc.c: 812: if(cdc_trf_state == 3)
  2422  00149E  0E03               	movlw	3
  2423  0014A0  0100               	movlb	0	; () banked
  2424  0014A2  1996               	xorwf	_cdc_trf_state& (0+255),w,b
  2425  0014A4  A4D8               	btfss	status,2,c
  2426  0014A6  D003               	goto	l720
  2427                           
  2428                           ; BSR set to: 0
  2429                           ;usb_device_cdc.c: 813: cdc_trf_state = 0;
  2430  0014A8  0E00               	movlw	0
  2431  0014AA  0100               	movlb	0	; () banked
  2432  0014AC  6F96               	movwf	_cdc_trf_state& (0+255),b
  2433  0014AE                     l720:
  2434                           
  2435                           ; BSR set to: 0
  2436                           ;usb_device_cdc.c: 818: if(cdc_trf_state == 0)
  2437  0014AE  0100               	movlb	0	; () banked
  2438  0014B0  5196               	movf	_cdc_trf_state& (0+255),w,b
  2439  0014B2  A4D8               	btfss	status,2,c
  2440  0014B4  D002               	goto	l4321
  2441                           
  2442                           ; BSR set to: 0
  2443                           ;usb_device_cdc.c: 819: {
  2444                           ;usb_device_cdc.c: 820: {PIE2bits.USBIE = 1;};
  2445  0014B6  8AA0               	bsf	4000,5,c	;volatile
  2446                           
  2447                           ;usb_device_cdc.c: 821: return;
  2448  0014B8  0012               	return	
  2449  0014BA                     l4321:
  2450                           
  2451                           ; BSR set to: 0
  2452                           ;usb_device_cdc.c: 822: }
  2453                           ;usb_device_cdc.c: 827: if(cdc_trf_state == 2)
  2454  0014BA  0E02               	movlw	2
  2455  0014BC  0100               	movlb	0	; () banked
  2456  0014BE  1996               	xorwf	_cdc_trf_state& (0+255),w,b
  2457  0014C0  A4D8               	btfss	status,2,c
  2458  0014C2  D017               	goto	l4327
  2459                           
  2460                           ; BSR set to: 0
  2461                           ;usb_device_cdc.c: 828: {
  2462                           ;usb_device_cdc.c: 829: CDCDataInHandle = USBTransferOnePacket(2,1,(0),0);
  2463  0014C4  0E01               	movlw	1
  2464  0014C6  0101               	movlb	1	; () banked
  2465  0014C8  6F40               	movwf	USBTransferOnePacket@dir& (0+255),b
  2466  0014CA  0E00               	movlw	0
  2467  0014CC  0101               	movlb	1	; () banked
  2468  0014CE  6F41               	movwf	USBTransferOnePacket@data& (0+255),b
  2469  0014D0  0E00               	movlw	0
  2470  0014D2  0101               	movlb	1	; () banked
  2471  0014D4  6F42               	movwf	(USBTransferOnePacket@data+1)& (0+255),b
  2472  0014D6  0E00               	movlw	0
  2473  0014D8  0101               	movlb	1	; () banked
  2474  0014DA  6F43               	movwf	USBTransferOnePacket@len& (0+255),b
  2475  0014DC  0E02               	movlw	2
  2476  0014DE  EC78  F010         	call	_USBTransferOnePacket
  2477  0014E2  C140  F090         	movff	?_USBTransferOnePacket,_CDCDataInHandle
  2478  0014E6  C141  F091         	movff	?_USBTransferOnePacket+1,_CDCDataInHandle+1
  2479                           
  2480                           ;usb_device_cdc.c: 831: cdc_trf_state = 3;
  2481  0014EA  0E03               	movlw	3
  2482  0014EC  0100               	movlb	0	; () banked
  2483  0014EE  6F96               	movwf	_cdc_trf_state& (0+255),b
  2484                           
  2485                           ;usb_device_cdc.c: 832: }
  2486  0014F0  D071               	goto	l4371
  2487  0014F2                     l4327:
  2488                           
  2489                           ; BSR set to: 0
  2490                           ;usb_device_cdc.c: 833: else if(cdc_trf_state == 1)
  2491  0014F2  0100               	movlb	0	; () banked
  2492  0014F4  0596               	decf	_cdc_trf_state& (0+255),w,b
  2493  0014F6  A4D8               	btfss	status,2,c
  2494  0014F8  D06D               	goto	l4371
  2495                           
  2496                           ; BSR set to: 0
  2497                           ;usb_device_cdc.c: 834: {
  2498                           ;usb_device_cdc.c: 838: if(cdc_tx_len > sizeof(cdc_data_tx))
  2499  0014FA  0E40               	movlw	64
  2500  0014FC  0100               	movlb	0	; () banked
  2501  0014FE  6597               	cpfsgt	_cdc_tx_len& (0+255),b
  2502  001500  D004               	goto	l725
  2503                           
  2504                           ; BSR set to: 0
  2505                           ;usb_device_cdc.c: 839: byte_to_send = sizeof(cdc_data_tx);
  2506  001502  0E40               	movlw	64
  2507  001504  0101               	movlb	1	; () banked
  2508  001506  6F4B               	movwf	CDCTxService@byte_to_send& (0+255),b
  2509  001508  D002               	goto	l4333
  2510  00150A                     l725:
  2511                           
  2512                           ; BSR set to: 0
  2513                           ;usb_device_cdc.c: 840: else
  2514                           ;usb_device_cdc.c: 841: byte_to_send = cdc_tx_len;
  2515  00150A  C097  F14B         	movff	_cdc_tx_len,CDCTxService@byte_to_send
  2516  00150E                     l4333:
  2517                           
  2518                           ;usb_device_cdc.c: 846: cdc_tx_len = cdc_tx_len - byte_to_send;
  2519  00150E  0101               	movlb	1	; () banked
  2520  001510  514B               	movf	CDCTxService@byte_to_send& (0+255),w,b
  2521  001512  0800               	sublw	0
  2522  001514  0100               	movlb	0	; () banked
  2523  001516  2597               	addwf	_cdc_tx_len& (0+255),w,b
  2524  001518  0100               	movlb	0	; () banked
  2525  00151A  6F97               	movwf	_cdc_tx_len& (0+255),b
  2526                           
  2527                           ;usb_device_cdc.c: 848: pCDCDst.bRam = (uint8_t*)&cdc_data_tx;
  2528  00151C  0E00               	movlw	0
  2529  00151E  0100               	movlb	0	; () banked
  2530  001520  6F8A               	movwf	_pCDCDst& (0+255),b
  2531  001522  0E05               	movlw	5
  2532  001524  0100               	movlb	0	; () banked
  2533  001526  6F8B               	movwf	(_pCDCDst+1)& (0+255),b
  2534                           
  2535                           ; BSR set to: 0
  2536                           ;usb_device_cdc.c: 850: i = byte_to_send;
  2537  001528  C14B  F14A         	movff	CDCTxService@byte_to_send,CDCTxService@i
  2538                           
  2539                           ; BSR set to: 0
  2540                           ;usb_device_cdc.c: 851: if(cdc_mem_type == 0x00)
  2541  00152C  0100               	movlb	0	; () banked
  2542  00152E  5194               	movf	_cdc_mem_type& (0+255),w,b
  2543  001530  B4D8               	btfsc	status,2,c
  2544  001532  D013               	goto	l4349
  2545  001534  D02A               	goto	l4359
  2546  001536                     l4341:
  2547                           
  2548                           ;usb_device_cdc.c: 854: {
  2549                           ;usb_device_cdc.c: 855: *pCDCDst.bRam = *pCDCSrc.bRom;
  2550  001536  C08D  FFD9         	movff	_pCDCSrc,fsr2l
  2551  00153A  C08E  FFDA         	movff	_pCDCSrc+1,fsr2h
  2552  00153E  C08A  FFE1         	movff	_pCDCDst,fsr1l
  2553  001542  C08B  FFE2         	movff	_pCDCDst+1,fsr1h
  2554  001546  CFDF FFE7          	movff	indf2,indf1
  2555                           
  2556                           ;usb_device_cdc.c: 856: pCDCDst.bRam++;
  2557  00154A  0100               	movlb	0	; () banked
  2558  00154C  4B8A               	infsnz	_pCDCDst& (0+255),f,b
  2559  00154E  2B8B               	incf	(_pCDCDst+1)& (0+255),f,b
  2560                           
  2561                           ; BSR set to: 0
  2562                           ;usb_device_cdc.c: 857: pCDCSrc.bRom++;
  2563  001550  0100               	movlb	0	; () banked
  2564  001552  4B8D               	infsnz	_pCDCSrc& (0+255),f,b
  2565  001554  2B8E               	incf	(_pCDCSrc+1)& (0+255),f,b
  2566                           
  2567                           ; BSR set to: 0
  2568                           ;usb_device_cdc.c: 858: i--;
  2569  001556  0101               	movlb	1	; () banked
  2570  001558  074A               	decf	CDCTxService@i& (0+255),f,b
  2571  00155A                     l4349:
  2572  00155A  0101               	movlb	1	; () banked
  2573  00155C  514A               	movf	CDCTxService@i& (0+255),w,b
  2574  00155E  0101               	movlb	1	; () banked
  2575  001560  B4D8               	btfsc	status,2,c
  2576  001562  D018               	goto	l4361
  2577  001564  D7E8               	goto	l4341
  2578  001566                     l4351:
  2579                           
  2580                           ; BSR set to: 1
  2581                           ;usb_device_cdc.c: 864: {
  2582                           ;usb_device_cdc.c: 865: *pCDCDst.bRam = *pCDCSrc.bRam;
  2583  001566  C08D  FFD9         	movff	_pCDCSrc,fsr2l
  2584  00156A  C08E  FFDA         	movff	_pCDCSrc+1,fsr2h
  2585  00156E  C08A  FFE1         	movff	_pCDCDst,fsr1l
  2586  001572  C08B  FFE2         	movff	_pCDCDst+1,fsr1h
  2587  001576  CFDF FFE7          	movff	indf2,indf1
  2588                           
  2589                           ; BSR set to: 1
  2590                           ;usb_device_cdc.c: 866: pCDCDst.bRam++;
  2591  00157A  0100               	movlb	0	; () banked
  2592  00157C  4B8A               	infsnz	_pCDCDst& (0+255),f,b
  2593  00157E  2B8B               	incf	(_pCDCDst+1)& (0+255),f,b
  2594                           
  2595                           ; BSR set to: 0
  2596                           ;usb_device_cdc.c: 867: pCDCSrc.bRam++;
  2597  001580  0100               	movlb	0	; () banked
  2598  001582  4B8D               	infsnz	_pCDCSrc& (0+255),f,b
  2599  001584  2B8E               	incf	(_pCDCSrc+1)& (0+255),f,b
  2600                           
  2601                           ; BSR set to: 0
  2602                           ;usb_device_cdc.c: 868: i--;
  2603  001586  0101               	movlb	1	; () banked
  2604  001588  074A               	decf	CDCTxService@i& (0+255),f,b
  2605  00158A                     l4359:
  2606  00158A  0101               	movlb	1	; () banked
  2607  00158C  514A               	movf	CDCTxService@i& (0+255),w,b
  2608  00158E  0101               	movlb	1	; () banked
  2609  001590  A4D8               	btfss	status,2,c
  2610  001592  D7E9               	goto	l4351
  2611  001594                     l4361:
  2612                           
  2613                           ; BSR set to: 1
  2614                           ;usb_device_cdc.c: 869: }
  2615                           ;usb_device_cdc.c: 870: }
  2616                           ;usb_device_cdc.c: 876: if(cdc_tx_len == 0)
  2617  001594  0100               	movlb	0	; () banked
  2618  001596  5197               	movf	_cdc_tx_len& (0+255),w,b
  2619  001598  A4D8               	btfss	status,2,c
  2620  00159A  D00A               	goto	l4369
  2621                           
  2622                           ; BSR set to: 0
  2623                           ;usb_device_cdc.c: 877: {
  2624                           ;usb_device_cdc.c: 878: if(byte_to_send == 64)
  2625  00159C  0E40               	movlw	64
  2626  00159E  0101               	movlb	1	; () banked
  2627  0015A0  194B               	xorwf	CDCTxService@byte_to_send& (0+255),w,b
  2628  0015A2  A4D8               	btfss	status,2,c
  2629  0015A4  D002               	goto	l4367
  2630                           
  2631                           ; BSR set to: 1
  2632                           ;usb_device_cdc.c: 879: cdc_trf_state = 2;
  2633  0015A6  0E02               	movlw	2
  2634  0015A8  D001               	goto	L2
  2635  0015AA                     l4367:
  2636                           
  2637                           ;usb_device_cdc.c: 880: else
  2638                           ;usb_device_cdc.c: 881: cdc_trf_state = 3;
  2639  0015AA  0E03               	movlw	3
  2640  0015AC                     L2:
  2641  0015AC  0100               	movlb	0	; () banked
  2642  0015AE  6F96               	movwf	_cdc_trf_state& (0+255),b
  2643  0015B0                     l4369:
  2644                           
  2645                           ; BSR set to: 0
  2646                           ;usb_device_cdc.c: 882: }
  2647                           ;usb_device_cdc.c: 883: CDCDataInHandle = USBTransferOnePacket(2,1,(uint8_t*)&cdc_data_t
      +                          x,byte_to_send);
  2648  0015B0  0E01               	movlw	1
  2649  0015B2  0101               	movlb	1	; () banked
  2650  0015B4  6F40               	movwf	USBTransferOnePacket@dir& (0+255),b
  2651  0015B6  0E00               	movlw	0
  2652  0015B8  0101               	movlb	1	; () banked
  2653  0015BA  6F41               	movwf	USBTransferOnePacket@data& (0+255),b
  2654  0015BC  0E05               	movlw	5
  2655  0015BE  0101               	movlb	1	; () banked
  2656  0015C0  6F42               	movwf	(USBTransferOnePacket@data+1)& (0+255),b
  2657  0015C2  C14B  F143         	movff	CDCTxService@byte_to_send,USBTransferOnePacket@len
  2658  0015C6  0E02               	movlw	2
  2659  0015C8  EC78  F010         	call	_USBTransferOnePacket
  2660  0015CC  C140  F090         	movff	?_USBTransferOnePacket,_CDCDataInHandle
  2661  0015D0  C141  F091         	movff	?_USBTransferOnePacket+1,_CDCDataInHandle+1
  2662  0015D4                     l4371:
  2663                           
  2664                           ;usb_device_cdc.c: 885: }
  2665                           ;usb_device_cdc.c: 887: {PIE2bits.USBIE = 1;};
  2666  0015D4  8AA0               	bsf	4000,5,c	;volatile
  2667  0015D6  0012               	return		;funcret
  2668  0015D8                     __end_of_CDCTxService:
  2669                           	opt stack 0
  2670                           tblptru	equ	0xFF8
  2671                           prodh	equ	0xFF4
  2672                           prodl	equ	0xFF3
  2673                           intcon	equ	0xFF2
  2674                           postinc0	equ	0xFEE
  2675                           wreg	equ	0xFE8
  2676                           indf1	equ	0xFE7
  2677                           fsr1h	equ	0xFE2
  2678                           fsr1l	equ	0xFE1
  2679                           indf2	equ	0xFDF
  2680                           postinc2	equ	0xFDE
  2681                           postdec2	equ	0xFDD
  2682                           fsr2h	equ	0xFDA
  2683                           fsr2l	equ	0xFD9
  2684                           status	equ	0xFD8
  2685                           
  2686 ;; *************** function _USBTransferOnePacket *****************
  2687 ;; Defined at:
  2688 ;;		line 995 in file "usb_device.c"
  2689 ;; Parameters:    Size  Location     Type
  2690 ;;  ep              1    wreg     unsigned char 
  2691 ;;  dir             1    0[BANK1 ] unsigned char 
  2692 ;;  data            2    1[BANK1 ] PTR unsigned char 
  2693 ;;		 -> cdc_data_tx(64), cdc_data_rx(64), NULL(0), 
  2694 ;;  len             1    3[BANK1 ] unsigned char 
  2695 ;; Auto vars:     Size  Location     Type
  2696 ;;  ep              1    4[BANK1 ] unsigned char 
  2697 ;;  handle          2    5[BANK1 ] PTR volatile struct __BD
  2698 ;;		 -> NULL(0), BDT(48), 
  2699 ;; Return value:  Size  Location     Type
  2700 ;;                  2    0[BANK1 ] PTR void 
  2701 ;; Registers used:
  2702 ;;		wreg, fsr2l, fsr2h, status,2, status,0, prodl, prodh
  2703 ;; Tracked objects:
  2704 ;;		On entry : 0/0
  2705 ;;		On exit  : 0/0
  2706 ;;		Unchanged: 0/0
  2707 ;; Data sizes:     COMRAM   BANK0   BANK1   BANK2   BANK3   BANK4   BANK5   BANK6   BANK7
  2708 ;;      Params:         0       0       4       0       0       0       0       0       0
  2709 ;;      Locals:         0       0       3       0       0       0       0       0       0
  2710 ;;      Temps:          0       0       0       0       0       0       0       0       0
  2711 ;;      Totals:         0       0       7       0       0       0       0       0       0
  2712 ;;Total ram usage:        7 bytes
  2713 ;; Hardware stack levels used:    1
  2714 ;; Hardware stack levels required when called:   12
  2715 ;; This function calls:
  2716 ;;		Nothing
  2717 ;; This function is called by:
  2718 ;;		_getsUSBUSART
  2719 ;;		_CDCTxService
  2720 ;;		_USBCDCEventHandler
  2721 ;; This function uses a non-reentrant model
  2722 ;;
  2723                           
  2724                           	psect	text11
  2725  0020F0                     __ptext11:
  2726                           	opt stack 0
  2727  0020F0                     _USBTransferOnePacket:
  2728                           	opt stack 16
  2729                           
  2730                           ;incstack = 0
  2731                           ;USBTransferOnePacket@ep stored from wreg
  2732  0020F0  0101               	movlb	1	; () banked
  2733  0020F2  6F44               	movwf	USBTransferOnePacket@ep& (0+255),b
  2734                           
  2735                           ;usb_device.c: 997: volatile BDT_ENTRY* handle;
  2736                           ;usb_device.c: 1000: if(dir != 0)
  2737  0020F4  0101               	movlb	1	; () banked
  2738  0020F6  5140               	movf	USBTransferOnePacket@dir& (0+255),w,b
  2739  0020F8  0101               	movlb	1	; () banked
  2740  0020FA  B4D8               	btfsc	status,2,c
  2741  0020FC  D008               	goto	l4235
  2742                           
  2743                           ; BSR set to: 1
  2744                           ;usb_device.c: 1001: {
  2745                           ;usb_device.c: 1003: handle = pBDTEntryIn[ep];
  2746  0020FE  0101               	movlb	1	; () banked
  2747  002100  5144               	movf	USBTransferOnePacket@ep& (0+255),w,b
  2748  002102  0D02               	mullw	2
  2749  002104  0E78               	movlw	low _pBDTEntryIn
  2750  002106  24F3               	addwf	prodl,w,c
  2751  002108  6ED9               	movwf	fsr2l,c
  2752  00210A  0E00               	movlw	high _pBDTEntryIn
  2753  00210C  D007               	goto	L3
  2754  00210E                     l4235:
  2755                           
  2756                           ; BSR set to: 1
  2757                           ;usb_device.c: 1005: else
  2758                           ;usb_device.c: 1006: {
  2759                           ;usb_device.c: 1008: handle = pBDTEntryOut[ep];
  2760  00210E  0101               	movlb	1	; () banked
  2761  002110  5144               	movf	USBTransferOnePacket@ep& (0+255),w,b
  2762  002112  0D02               	mullw	2
  2763  002114  0E7E               	movlw	low _pBDTEntryOut
  2764  002116  24F3               	addwf	prodl,w,c
  2765  002118  6ED9               	movwf	fsr2l,c
  2766  00211A  0E00               	movlw	high _pBDTEntryOut
  2767  00211C                     L3:
  2768  00211C  20F4               	addwfc	prodh,w,c
  2769  00211E  6EDA               	movwf	fsr2h,c
  2770  002120  CFDE F145          	movff	postinc2,USBTransferOnePacket@handle
  2771  002124  CFDD F146          	movff	postdec2,USBTransferOnePacket@handle+1
  2772                           
  2773                           ; BSR set to: 1
  2774                           ;usb_device.c: 1009: }
  2775                           ;usb_device.c: 1013: if(handle == 0)
  2776                           
  2777                           ; BSR set to: 1
  2778  002128  0101               	movlb	1	; () banked
  2779  00212A  5145               	movf	USBTransferOnePacket@handle& (0+255),w,b
  2780  00212C  0101               	movlb	1	; () banked
  2781  00212E  1146               	iorwf	(USBTransferOnePacket@handle+1)& (0+255),w,b
  2782  002130  A4D8               	btfss	status,2,c
  2783  002132  D007               	goto	l4243
  2784                           
  2785                           ; BSR set to: 1
  2786                           ;usb_device.c: 1014: {
  2787                           ;usb_device.c: 1015: return 0;
  2788  002134  0E00               	movlw	0
  2789  002136  0101               	movlb	1	; () banked
  2790  002138  6F40               	movwf	?_USBTransferOnePacket& (0+255),b
  2791  00213A  0E00               	movlw	0
  2792  00213C  0101               	movlb	1	; () banked
  2793  00213E  6F41               	movwf	(?_USBTransferOnePacket+1)& (0+255),b
  2794                           
  2795                           ; BSR set to: 1
  2796  002140  0012               	return	
  2797  002142                     l4243:
  2798                           
  2799                           ; BSR set to: 1
  2800                           ;usb_device.c: 1016: }
  2801                           ;usb_device.c: 1029: handle->ADR = ((uint16_t)(data));
  2802  002142  0101               	movlb	1	; () banked
  2803  002144  EE20 F002          	lfsr	2,2
  2804  002148  5145               	movf	USBTransferOnePacket@handle& (0+255),w,b
  2805  00214A  26D9               	addwf	fsr2l,f,c
  2806  00214C  5146               	movf	(USBTransferOnePacket@handle+1)& (0+255),w,b
  2807  00214E  22DA               	addwfc	fsr2h,f,c
  2808  002150  C141  FFDE         	movff	USBTransferOnePacket@data,postinc2
  2809  002154  C142  FFDD         	movff	USBTransferOnePacket@data+1,postdec2
  2810                           
  2811                           ;usb_device.c: 1030: handle->CNT = len;
  2812  002158  0101               	movlb	1	; () banked
  2813  00215A  EE20 F001          	lfsr	2,1
  2814  00215E  5145               	movf	USBTransferOnePacket@handle& (0+255),w,b
  2815  002160  26D9               	addwf	fsr2l,f,c
  2816  002162  5146               	movf	(USBTransferOnePacket@handle+1)& (0+255),w,b
  2817  002164  22DA               	addwfc	fsr2h,f,c
  2818  002166  C143  FFDF         	movff	USBTransferOnePacket@len,indf2
  2819                           
  2820                           ; BSR set to: 1
  2821                           ;usb_device.c: 1031: handle->STAT.Val &= 0x40;
  2822  00216A  C145  FFD9         	movff	USBTransferOnePacket@handle,fsr2l
  2823  00216E  C146  FFDA         	movff	USBTransferOnePacket@handle+1,fsr2h
  2824  002172  0E40               	movlw	64
  2825  002174  16DF               	andwf	indf2,f,c
  2826                           
  2827                           ; BSR set to: 1
  2828                           ;usb_device.c: 1032: handle->STAT.Val |= (0x08 & 0x08);
  2829  002176  C145  FFD9         	movff	USBTransferOnePacket@handle,fsr2l
  2830  00217A  C146  FFDA         	movff	USBTransferOnePacket@handle+1,fsr2h
  2831  00217E  0E00               	movlw	0
  2832  002180  86DB               	bsf	plusw2,3,c
  2833                           
  2834                           ; BSR set to: 1
  2835                           ;usb_device.c: 1033: handle->STAT.Val |= 0x80;
  2836  002182  C145  FFD9         	movff	USBTransferOnePacket@handle,fsr2l
  2837  002186  C146  FFDA         	movff	USBTransferOnePacket@handle+1,fsr2h
  2838  00218A  0E00               	movlw	0
  2839  00218C  8EDB               	bsf	plusw2,7,c
  2840                           
  2841                           ; BSR set to: 1
  2842                           ;usb_device.c: 1036: if(dir != 0)
  2843  00218E  0101               	movlb	1	; () banked
  2844  002190  5140               	movf	USBTransferOnePacket@dir& (0+255),w,b
  2845  002192  0101               	movlb	1	; () banked
  2846  002194  B4D8               	btfsc	status,2,c
  2847  002196  D008               	goto	l4255
  2848                           
  2849                           ; BSR set to: 1
  2850                           ;usb_device.c: 1037: {
  2851                           ;usb_device.c: 1039: {((uint8_t_VAL*)&pBDTEntryIn[ep])->Val ^= 0x0004;};
  2852  002198  0101               	movlb	1	; () banked
  2853  00219A  5144               	movf	USBTransferOnePacket@ep& (0+255),w,b
  2854  00219C  0D02               	mullw	2
  2855  00219E  0E78               	movlw	low _pBDTEntryIn
  2856  0021A0  24F3               	addwf	prodl,w,c
  2857  0021A2  6ED9               	movwf	fsr2l,c
  2858  0021A4  0E00               	movlw	high _pBDTEntryIn
  2859  0021A6  D007               	goto	L4
  2860  0021A8                     l4255:
  2861                           
  2862                           ; BSR set to: 1
  2863                           ;usb_device.c: 1041: else
  2864                           ;usb_device.c: 1042: {
  2865                           ;usb_device.c: 1044: {((uint8_t_VAL*)&pBDTEntryOut[ep])->Val ^= 0x0004;};
  2866  0021A8  0101               	movlb	1	; () banked
  2867  0021AA  5144               	movf	USBTransferOnePacket@ep& (0+255),w,b
  2868  0021AC  0D02               	mullw	2
  2869  0021AE  0E7E               	movlw	low _pBDTEntryOut
  2870  0021B0  24F3               	addwf	prodl,w,c
  2871  0021B2  6ED9               	movwf	fsr2l,c
  2872  0021B4  0E00               	movlw	high _pBDTEntryOut
  2873  0021B6                     L4:
  2874  0021B6  20F4               	addwfc	prodh,w,c
  2875  0021B8  6EDA               	movwf	fsr2h,c
  2876  0021BA  0E04               	movlw	4
  2877  0021BC  1ADF               	xorwf	indf2,f,c
  2878                           
  2879                           ; BSR set to: 1
  2880                           ;usb_device.c: 1045: }
  2881                           ;usb_device.c: 1046: return (void*)handle;
  2882                           
  2883                           ; BSR set to: 1
  2884  0021BE  C145  F140         	movff	USBTransferOnePacket@handle,?_USBTransferOnePacket
  2885  0021C2  C146  F141         	movff	USBTransferOnePacket@handle+1,?_USBTransferOnePacket+1
  2886  0021C6  0012               	return	
  2887  0021C8                     __end_of_USBTransferOnePacket:
  2888                           	opt stack 0
  2889                           tblptru	equ	0xFF8
  2890                           prodh	equ	0xFF4
  2891                           prodl	equ	0xFF3
  2892                           intcon	equ	0xFF2
  2893                           postinc0	equ	0xFEE
  2894                           wreg	equ	0xFE8
  2895                           indf1	equ	0xFE7
  2896                           fsr1h	equ	0xFE2
  2897                           fsr1l	equ	0xFE1
  2898                           indf2	equ	0xFDF
  2899                           postinc2	equ	0xFDE
  2900                           postdec2	equ	0xFDD
  2901                           plusw2	equ	0xFDB
  2902                           fsr2h	equ	0xFDA
  2903                           fsr2l	equ	0xFD9
  2904                           status	equ	0xFD8
  2905                           
  2906 ;; *************** function _low_isr *****************
  2907 ;; Defined at:
  2908 ;;		line 71 in file "main.c"
  2909 ;; Parameters:    Size  Location     Type
  2910 ;;		None
  2911 ;; Auto vars:     Size  Location     Type
  2912 ;;		None
  2913 ;; Return value:  Size  Location     Type
  2914 ;;                  1    wreg      void 
  2915 ;; Registers used:
  2916 ;;		None
  2917 ;; Tracked objects:
  2918 ;;		On entry : 0/0
  2919 ;;		On exit  : 0/0
  2920 ;;		Unchanged: 0/0
  2921 ;; Data sizes:     COMRAM   BANK0   BANK1   BANK2   BANK3   BANK4   BANK5   BANK6   BANK7
  2922 ;;      Params:         0       0       0       0       0       0       0       0       0
  2923 ;;      Locals:         0       0       0       0       0       0       0       0       0
  2924 ;;      Temps:          0      17       0       0       0       0       0       0       0
  2925 ;;      Totals:         0      17       0       0       0       0       0       0       0
  2926 ;;Total ram usage:       17 bytes
  2927 ;; Hardware stack levels used:    1
  2928 ;; Hardware stack levels required when called:   11
  2929 ;; This function calls:
  2930 ;;		Nothing
  2931 ;; This function is called by:
  2932 ;;		Interrupt level 1
  2933 ;; This function uses a non-reentrant model
  2934 ;;
  2935                           
  2936                           	psect	intcodelo
  2937  001018                     __pintcodelo:
  2938                           	opt stack 0
  2939  001018                     _low_isr:
  2940                           	opt stack 16
  2941                           
  2942                           ; BSR set to: 1
  2943                           ;incstack = 0
  2944  001018  8054               	bsf	btemp,0,c	;set compiler interrupt flag (level 1)
  2945  00101A  CFD8 F0E3          	movff	status,??_low_isr
  2946  00101E  CFE8 F0E4          	movff	wreg,??_low_isr+1
  2947  001022  CFE0 F0E5          	movff	bsr,??_low_isr+2
  2948  001026  CFFA F0E6          	movff	pclath,??_low_isr+3
  2949  00102A  CFFB F0E7          	movff	pclatu,??_low_isr+4
  2950  00102E  CFE9 F0E8          	movff	fsr0l,??_low_isr+5
  2951  001032  CFEA F0E9          	movff	fsr0h,??_low_isr+6
  2952  001036  CFE1 F0EA          	movff	fsr1l,??_low_isr+7
  2953  00103A  CFE2 F0EB          	movff	fsr1h,??_low_isr+8
  2954  00103E  CFD9 F0EC          	movff	fsr2l,??_low_isr+9
  2955  001042  CFDA F0ED          	movff	fsr2h,??_low_isr+10
  2956  001046  CFF3 F0EE          	movff	prodl,??_low_isr+11
  2957  00104A  CFF4 F0EF          	movff	prodh,??_low_isr+12
  2958  00104E  CFF6 F0F0          	movff	tblptrl,??_low_isr+13
  2959  001052  CFF7 F0F1          	movff	tblptrh,??_low_isr+14
  2960  001056  CFF8 F0F2          	movff	tblptru,??_low_isr+15
  2961  00105A  CFF5 F0F3          	movff	tablat,??_low_isr+16
  2962  00105E  C0F3  FFF5         	movff	??_low_isr+16,tablat
  2963  001062  C0F2  FFF8         	movff	??_low_isr+15,tblptru
  2964  001066  C0F1  FFF7         	movff	??_low_isr+14,tblptrh
  2965  00106A  C0F0  FFF6         	movff	??_low_isr+13,tblptrl
  2966  00106E  C0EF  FFF4         	movff	??_low_isr+12,prodh
  2967  001072  C0EE  FFF3         	movff	??_low_isr+11,prodl
  2968  001076  C0ED  FFDA         	movff	??_low_isr+10,fsr2h
  2969  00107A  C0EC  FFD9         	movff	??_low_isr+9,fsr2l
  2970  00107E  C0EB  FFE2         	movff	??_low_isr+8,fsr1h
  2971  001082  C0EA  FFE1         	movff	??_low_isr+7,fsr1l
  2972  001086  C0E9  FFEA         	movff	??_low_isr+6,fsr0h
  2973  00108A  C0E8  FFE9         	movff	??_low_isr+5,fsr0l
  2974  00108E  C0E7  FFFB         	movff	??_low_isr+4,pclatu
  2975  001092  C0E6  FFFA         	movff	??_low_isr+3,pclath
  2976  001096  C0E5  FFE0         	movff	??_low_isr+2,bsr
  2977  00109A  C0E4  FFE8         	movff	??_low_isr+1,wreg
  2978  00109E  C0E3  FFD8         	movff	??_low_isr,status
  2979  0010A2  9054               	bcf	btemp,0,c	;clear compiler interrupt flag (level 1)
  2980  0010A4  0010               	retfie	
  2981  0010A6                     __end_of_low_isr:
  2982                           	opt stack 0
  2983                           pclatu	equ	0xFFB
  2984                           pclath	equ	0xFFA
  2985                           tblptru	equ	0xFF8
  2986                           tblptrh	equ	0xFF7
  2987                           tblptrl	equ	0xFF6
  2988                           tablat	equ	0xFF5
  2989                           prodh	equ	0xFF4
  2990                           prodl	equ	0xFF3
  2991                           intcon	equ	0xFF2
  2992                           postinc0	equ	0xFEE
  2993                           fsr0h	equ	0xFEA
  2994                           fsr0l	equ	0xFE9
  2995                           wreg	equ	0xFE8
  2996                           indf1	equ	0xFE7
  2997                           fsr1h	equ	0xFE2
  2998                           fsr1l	equ	0xFE1
  2999                           bsr	equ	0xFE0
  3000                           indf2	equ	0xFDF
  3001                           postinc2	equ	0xFDE
  3002                           postdec2	equ	0xFDD
  3003                           plusw2	equ	0xFDB
  3004                           fsr2h	equ	0xFDA
  3005                           fsr2l	equ	0xFD9
  3006                           status	equ	0xFD8
  3007                           
  3008 ;; *************** function _SYS_InterruptHigh *****************
  3009 ;; Defined at:
  3010 ;;		line 77 in file "main.c"
  3011 ;; Parameters:    Size  Location     Type
  3012 ;;		None
  3013 ;; Auto vars:     Size  Location     Type
  3014 ;;		None
  3015 ;; Return value:  Size  Location     Type
  3016 ;;                  1    wreg      void 
  3017 ;; Registers used:
  3018 ;;		wreg, fsr1l, fsr1h, fsr2l, fsr2h, status,2, status,0, tblptrl, tblptrh, tblptru, prodl, prodh, cstack
  3019 ;; Tracked objects:
  3020 ;;		On entry : 0/0
  3021 ;;		On exit  : 0/0
  3022 ;;		Unchanged: 0/0
  3023 ;; Data sizes:     COMRAM   BANK0   BANK1   BANK2   BANK3   BANK4   BANK5   BANK6   BANK7
  3024 ;;      Params:         0       0       0       0       0       0       0       0       0
  3025 ;;      Locals:         0       0       0       0       0       0       0       0       0
  3026 ;;      Temps:         14       0       0       0       0       0       0       0       0
  3027 ;;      Totals:        14       0       0       0       0       0       0       0       0
  3028 ;;Total ram usage:       14 bytes
  3029 ;; Hardware stack levels used:    1
  3030 ;; Hardware stack levels required when called:   10
  3031 ;; This function calls:
  3032 ;;		_USBDeviceTasks
  3033 ;;		i2_putUSBUSART
  3034 ;; This function is called by:
  3035 ;;		Interrupt level 2
  3036 ;; This function uses a non-reentrant model
  3037 ;;
  3038                           
  3039                           	psect	intcode
  3040  001008                     __pintcode:
  3041                           	opt stack 0
  3042  001008                     _SYS_InterruptHigh:
  3043                           	opt stack 16
  3044                           
  3045                           ;incstack = 0
  3046  001008  8254               	bsf	btemp,1,c	;set compiler interrupt flag (level 2)
  3047  00100A  CFFA F01F          	movff	pclath,??_SYS_InterruptHigh
  3048  00100E  CFFB F020          	movff	pclatu,??_SYS_InterruptHigh+1
  3049  001012  ED9A  F013         	call	int_func,f	;refresh shadow registers
  3050                           pclatu	equ	0xFFB
  3051                           pclath	equ	0xFFA
  3052                           tblptru	equ	0xFF8
  3053                           tblptrh	equ	0xFF7
  3054                           tblptrl	equ	0xFF6
  3055                           tablat	equ	0xFF5
  3056                           prodh	equ	0xFF4
  3057                           prodl	equ	0xFF3
  3058                           intcon	equ	0xFF2
  3059                           postinc0	equ	0xFEE
  3060                           fsr0h	equ	0xFEA
  3061                           fsr0l	equ	0xFE9
  3062                           wreg	equ	0xFE8
  3063                           indf1	equ	0xFE7
  3064                           fsr1h	equ	0xFE2
  3065                           fsr1l	equ	0xFE1
  3066                           bsr	equ	0xFE0
  3067                           indf2	equ	0xFDF
  3068                           postinc2	equ	0xFDE
  3069                           postdec2	equ	0xFDD
  3070                           plusw2	equ	0xFDB
  3071                           fsr2h	equ	0xFDA
  3072                           fsr2l	equ	0xFD9
  3073                           status	equ	0xFD8
  3074                           
  3075                           	psect	intcode_body
  3076  002734                     __pintcode_body:
  3077                           	opt stack 16
  3078  002734                     int_func:
  3079                           	opt stack 16
  3080  002734  0006               	pop		; remove dummy address from shadow register refresh
  3081  002736  CFE9 F021          	movff	fsr0l,??_SYS_InterruptHigh+2
  3082  00273A  CFEA F022          	movff	fsr0h,??_SYS_InterruptHigh+3
  3083  00273E  CFE1 F023          	movff	fsr1l,??_SYS_InterruptHigh+4
  3084  002742  CFE2 F024          	movff	fsr1h,??_SYS_InterruptHigh+5
  3085  002746  CFD9 F025          	movff	fsr2l,??_SYS_InterruptHigh+6
  3086  00274A  CFDA F026          	movff	fsr2h,??_SYS_InterruptHigh+7
  3087  00274E  CFF3 F027          	movff	prodl,??_SYS_InterruptHigh+8
  3088  002752  CFF4 F028          	movff	prodh,??_SYS_InterruptHigh+9
  3089  002756  CFF6 F029          	movff	tblptrl,??_SYS_InterruptHigh+10
  3090  00275A  CFF7 F02A          	movff	tblptrh,??_SYS_InterruptHigh+11
  3091  00275E  CFF8 F02B          	movff	tblptru,??_SYS_InterruptHigh+12
  3092  002762  CFF5 F02C          	movff	tablat,??_SYS_InterruptHigh+13
  3093                           
  3094                           ;main.c: 79: if(INTCONbits.TMR0IF == 1)
  3095  002766  A4F2               	btfss	intcon,2,c	;volatile
  3096  002768  D007               	goto	i2l121
  3097                           
  3098                           ;main.c: 80: {
  3099                           ;main.c: 81: ADCON0bits.GO_DONE = 1;
  3100  00276A  82C2               	bsf	4034,1,c	;volatile
  3101                           
  3102                           ;main.c: 83: TMR0H = timerHigh;
  3103  00276C  C047  FFD7         	movff	_timerHigh,4055	;volatile
  3104                           
  3105                           ;main.c: 84: TMR0L = timerLow;
  3106  002770  C048  FFD6         	movff	_timerLow,4054	;volatile
  3107                           
  3108                           ;main.c: 85: INTCONbits.TMR0IF=0;
  3109  002774  94F2               	bcf	intcon,2,c	;volatile
  3110                           
  3111                           ;main.c: 86: }
  3112  002776  D012               	goto	i2l125
  3113  002778                     i2l121:
  3114                           
  3115                           ;main.c: 87: else if(PIR1bits.ADIF == 1)
  3116  002778  AC9E               	btfss	3998,6,c	;volatile
  3117  00277A  D00E               	goto	i2l4089
  3118                           
  3119                           ;main.c: 88: {
  3120                           ;main.c: 89: ad[1] = ADRESH;
  3121  00277C  CFC4 F0E1          	movff	4036,_ad+1	;volatile
  3122                           
  3123                           ;main.c: 90: ad[2] = ADRESL;
  3124  002780  CFC3 F0E2          	movff	4035,_ad+2	;volatile
  3125                           
  3126                           ;main.c: 91: putUSBUSART(ad,3);
  3127  002784  0EE0               	movlw	low _ad
  3128  002786  6E01               	movwf	i2putUSBUSART@data,c
  3129  002788  0E00               	movlw	high _ad
  3130  00278A  6E02               	movwf	i2putUSBUSART@data+1,c
  3131  00278C  0E03               	movlw	3
  3132  00278E  6E03               	movwf	i2putUSBUSART@length,c
  3133  002790  ECCD  F016         	call	i2_putUSBUSART	;wreg free
  3134                           
  3135                           ;main.c: 92: PIR1bits.ADIF = 0;
  3136  002794  9C9E               	bcf	3998,6,c	;volatile
  3137                           
  3138                           ;main.c: 93: }
  3139  002796  D002               	goto	i2l125
  3140  002798                     i2l4089:
  3141                           
  3142                           ;main.c: 94: else {
  3143                           ;main.c: 96: USBDeviceTasks();
  3144  002798  EC7D  F00D         	call	_USBDeviceTasks	;wreg free
  3145  00279C                     i2l125:
  3146  00279C  C02C  FFF5         	movff	??_SYS_InterruptHigh+13,tablat
  3147  0027A0  C02B  FFF8         	movff	??_SYS_InterruptHigh+12,tblptru
  3148  0027A4  C02A  FFF7         	movff	??_SYS_InterruptHigh+11,tblptrh
  3149  0027A8  C029  FFF6         	movff	??_SYS_InterruptHigh+10,tblptrl
  3150  0027AC  C028  FFF4         	movff	??_SYS_InterruptHigh+9,prodh
  3151  0027B0  C027  FFF3         	movff	??_SYS_InterruptHigh+8,prodl
  3152  0027B4  C026  FFDA         	movff	??_SYS_InterruptHigh+7,fsr2h
  3153  0027B8  C025  FFD9         	movff	??_SYS_InterruptHigh+6,fsr2l
  3154  0027BC  C024  FFE2         	movff	??_SYS_InterruptHigh+5,fsr1h
  3155  0027C0  C023  FFE1         	movff	??_SYS_InterruptHigh+4,fsr1l
  3156  0027C4  C022  FFEA         	movff	??_SYS_InterruptHigh+3,fsr0h
  3157  0027C8  C021  FFE9         	movff	??_SYS_InterruptHigh+2,fsr0l
  3158  0027CC  C020  FFFB         	movff	??_SYS_InterruptHigh+1,pclatu
  3159  0027D0  C01F  FFFA         	movff	??_SYS_InterruptHigh,pclath
  3160  0027D4  9254               	bcf	btemp,1,c	;clear compiler interrupt flag (level 2)
  3161  0027D6  0011               	retfie		f
  3162  0027D8                     __end_of_SYS_InterruptHigh:
  3163                           	opt stack 0
  3164                           pclatu	equ	0xFFB
  3165                           pclath	equ	0xFFA
  3166                           tblptru	equ	0xFF8
  3167                           tblptrh	equ	0xFF7
  3168                           tblptrl	equ	0xFF6
  3169                           tablat	equ	0xFF5
  3170                           prodh	equ	0xFF4
  3171                           prodl	equ	0xFF3
  3172                           intcon	equ	0xFF2
  3173                           postinc0	equ	0xFEE
  3174                           fsr0h	equ	0xFEA
  3175                           fsr0l	equ	0xFE9
  3176                           wreg	equ	0xFE8
  3177                           indf1	equ	0xFE7
  3178                           fsr1h	equ	0xFE2
  3179                           fsr1l	equ	0xFE1
  3180                           bsr	equ	0xFE0
  3181                           indf2	equ	0xFDF
  3182                           postinc2	equ	0xFDE
  3183                           postdec2	equ	0xFDD
  3184                           plusw2	equ	0xFDB
  3185                           fsr2h	equ	0xFDA
  3186                           fsr2l	equ	0xFD9
  3187                           status	equ	0xFD8
  3188                           
  3189 ;; *************** function i2_putUSBUSART *****************
  3190 ;; Defined at:
  3191 ;;		line 512 in file "usb_device_cdc.c"
  3192 ;; Parameters:    Size  Location     Type
  3193 ;;  data            2    0[COMRAM] PTR unsigned char 
  3194 ;;		 -> writeBuffer(64), ad(3), 
  3195 ;;  length          1    2[COMRAM] unsigned char 
  3196 ;; Auto vars:     Size  Location     Type
  3197 ;;		None
  3198 ;; Return value:  Size  Location     Type
  3199 ;;                  1    wreg      void 
  3200 ;; Registers used:
  3201 ;;		wreg, status,2, status,0
  3202 ;; Tracked objects:
  3203 ;;		On entry : 0/0
  3204 ;;		On exit  : 0/0
  3205 ;;		Unchanged: 0/0
  3206 ;; Data sizes:     COMRAM   BANK0   BANK1   BANK2   BANK3   BANK4   BANK5   BANK6   BANK7
  3207 ;;      Params:         3       0       0       0       0       0       0       0       0
  3208 ;;      Locals:         0       0       0       0       0       0       0       0       0
  3209 ;;      Temps:          0       0       0       0       0       0       0       0       0
  3210 ;;      Totals:         3       0       0       0       0       0       0       0       0
  3211 ;;Total ram usage:        3 bytes
  3212 ;; Hardware stack levels used:    1
  3213 ;; This function calls:
  3214 ;;		Nothing
  3215 ;; This function is called by:
  3216 ;;		_SYS_InterruptHigh
  3217 ;; This function uses a non-reentrant model
  3218 ;;
  3219                           
  3220                           	psect	text14
  3221  002D9A                     __ptext14:
  3222                           	opt stack 0
  3223  002D9A                     i2_putUSBUSART:
  3224                           	opt stack 25
  3225                           
  3226                           ;usb_device_cdc.c: 537: {PIE2bits.USBIE = 0;};
  3227                           
  3228                           ;incstack = 0
  3229  002D9A  9AA0               	bcf	4000,5,c	;volatile
  3230                           
  3231                           ;usb_device_cdc.c: 538: if(cdc_trf_state == 0)
  3232  002D9C  0100               	movlb	0	; () banked
  3233  002D9E  5196               	movf	_cdc_trf_state& (0+255),w,b
  3234  002DA0  A4D8               	btfss	status,2,c
  3235  002DA2  D00C               	goto	i2l4065
  3236                           
  3237                           ; BSR set to: 0
  3238                           ;usb_device_cdc.c: 539: {
  3239                           ;usb_device_cdc.c: 540: { pCDCSrc.bRam = (uint8_t*)data; cdc_tx_len = length; cdc_mem_ty
      +                          pe = 0x01; cdc_trf_state = 1; };
  3240  002DA4  C001  F08D         	movff	i2putUSBUSART@data,_pCDCSrc
  3241  002DA8  C002  F08E         	movff	i2putUSBUSART@data+1,_pCDCSrc+1
  3242                           
  3243                           ; BSR set to: 0
  3244  002DAC  C003  F097         	movff	i2putUSBUSART@length,_cdc_tx_len
  3245                           
  3246                           ; BSR set to: 0
  3247  002DB0  0E01               	movlw	1
  3248  002DB2  0100               	movlb	0	; () banked
  3249  002DB4  6F94               	movwf	_cdc_mem_type& (0+255),b
  3250                           
  3251                           ; BSR set to: 0
  3252  002DB6  0E01               	movlw	1
  3253  002DB8  0100               	movlb	0	; () banked
  3254  002DBA  6F96               	movwf	_cdc_trf_state& (0+255),b
  3255  002DBC                     i2l4065:
  3256                           
  3257                           ; BSR set to: 0
  3258                           ;usb_device_cdc.c: 541: }
  3259                           ;usb_device_cdc.c: 542: {PIE2bits.USBIE = 1;};
  3260  002DBC  8AA0               	bsf	4000,5,c	;volatile
  3261                           
  3262                           ; BSR set to: 0
  3263  002DBE  0012               	return		;funcret
  3264  002DC0                     __end_ofi2_putUSBUSART:
  3265                           	opt stack 0
  3266                           pclatu	equ	0xFFB
  3267                           pclath	equ	0xFFA
  3268                           tblptru	equ	0xFF8
  3269                           tblptrh	equ	0xFF7
  3270                           tblptrl	equ	0xFF6
  3271                           tablat	equ	0xFF5
  3272                           prodh	equ	0xFF4
  3273                           prodl	equ	0xFF3
  3274                           intcon	equ	0xFF2
  3275                           postinc0	equ	0xFEE
  3276                           fsr0h	equ	0xFEA
  3277                           fsr0l	equ	0xFE9
  3278                           wreg	equ	0xFE8
  3279                           indf1	equ	0xFE7
  3280                           fsr1h	equ	0xFE2
  3281                           fsr1l	equ	0xFE1
  3282                           bsr	equ	0xFE0
  3283                           indf2	equ	0xFDF
  3284                           postinc2	equ	0xFDE
  3285                           postdec2	equ	0xFDD
  3286                           plusw2	equ	0xFDB
  3287                           fsr2h	equ	0xFDA
  3288                           fsr2l	equ	0xFD9
  3289                           status	equ	0xFD8
  3290                           
  3291 ;; *************** function _USBDeviceTasks *****************
  3292 ;; Defined at:
  3293 ;;		line 489 in file "usb_device.c"
  3294 ;; Parameters:    Size  Location     Type
  3295 ;;		None
  3296 ;; Auto vars:     Size  Location     Type
  3297 ;;  i               1   29[COMRAM] unsigned char 
  3298 ;; Return value:  Size  Location     Type
  3299 ;;                  1    wreg      void 
  3300 ;; Registers used:
  3301 ;;		wreg, fsr1l, fsr1h, fsr2l, fsr2h, status,2, status,0, tblptrl, tblptrh, tblptru, prodl, prodh, cstack
  3302 ;; Tracked objects:
  3303 ;;		On entry : 0/0
  3304 ;;		On exit  : 0/0
  3305 ;;		Unchanged: 0/0
  3306 ;; Data sizes:     COMRAM   BANK0   BANK1   BANK2   BANK3   BANK4   BANK5   BANK6   BANK7
  3307 ;;      Params:         0       0       0       0       0       0       0       0       0
  3308 ;;      Locals:         1       0       0       0       0       0       0       0       0
  3309 ;;      Temps:          0       0       0       0       0       0       0       0       0
  3310 ;;      Totals:         1       0       0       0       0       0       0       0       0
  3311 ;;Total ram usage:        1 bytes
  3312 ;; Hardware stack levels used:    1
  3313 ;; Hardware stack levels required when called:    9
  3314 ;; This function calls:
  3315 ;;		_USBCtrlEPAllowStatusStage
  3316 ;;		_USBCtrlEPService
  3317 ;;		_USBStallHandler
  3318 ;;		_USBSuspend
  3319 ;;		_USBWakeFromSuspend
  3320 ;;		_USER_USB_CALLBACK_EVENT_HANDLER
  3321 ;;		i2_USBDeviceInit
  3322 ;; This function is called by:
  3323 ;;		_SYS_InterruptHigh
  3324 ;; This function uses a non-reentrant model
  3325 ;;
  3326                           
  3327                           	psect	text15
  3328  001AFA                     __ptext15:
  3329                           	opt stack 0
  3330  001AFA                     _USBDeviceTasks:
  3331                           	opt stack 16
  3332                           
  3333                           ;usb_device.c: 491: uint8_t i;
  3334                           ;usb_device.c: 602: if(USBDeviceState == ATTACHED_STATE)
  3335                           
  3336                           ; BSR set to: 0
  3337                           ;incstack = 0
  3338  001AFA  043F               	decf	_USBDeviceState,w,c	;volatile
  3339  001AFC  B4D8               	btfsc	status,2,c
  3340                           
  3341                           ;usb_device.c: 603: {
  3342                           ;usb_device.c: 613: if(!UCONbits.SE0)
  3343  001AFE  BA6D               	btfsc	3949,5,c	;volatile
  3344  001B00  D006               	goto	i2l3961
  3345                           
  3346                           ;usb_device.c: 614: {
  3347                           ;usb_device.c: 615: {UIR = 0;};
  3348  001B02  0E00               	movlw	0
  3349  001B04  6E68               	movwf	3944,c	;volatile
  3350                           
  3351                           ;usb_device.c: 619: UIEbits.URSTIE = 1;
  3352  001B06  8069               	bsf	3945,0,c	;volatile
  3353                           
  3354                           ;usb_device.c: 620: UIEbits.IDLEIE = 1;
  3355  001B08  8869               	bsf	3945,4,c	;volatile
  3356                           
  3357                           ;usb_device.c: 621: USBDeviceState = POWERED_STATE;
  3358  001B0A  0E02               	movlw	2
  3359  001B0C  6E3F               	movwf	_USBDeviceState,c	;volatile
  3360  001B0E                     i2l3961:
  3361                           
  3362                           ;usb_device.c: 622: }
  3363                           ;usb_device.c: 623: }
  3364                           ;usb_device.c: 639: if(UIRbits.ACTVIF && UIEbits.ACTVIE)
  3365  001B0E  B468               	btfsc	3944,2,c	;volatile
  3366  001B10  A469               	btfss	3945,2,c	;volatile
  3367  001B12  D003               	goto	i2l3969
  3368                           
  3369                           ;usb_device.c: 640: {
  3370                           ;usb_device.c: 641: (UIR &= 0xFB);
  3371  001B14  9468               	bcf	3944,2,c	;volatile
  3372                           
  3373                           ;usb_device.c: 645: USBWakeFromSuspend();
  3374  001B16  EC66  F016         	call	_USBWakeFromSuspend	;wreg free
  3375  001B1A                     i2l3969:
  3376                           
  3377                           ;usb_device.c: 647: }
  3378                           ;usb_device.c: 652: if(UCONbits.SUSPND==1)
  3379  001B1A  A26D               	btfss	3949,1,c	;volatile
  3380  001B1C  D002               	goto	i2l374
  3381                           
  3382                           ;usb_device.c: 653: {
  3383                           ;usb_device.c: 654: {PIR2bits.USBIF = 0;};
  3384  001B1E  9AA1               	bcf	4001,5,c	;volatile
  3385                           
  3386                           ;usb_device.c: 655: return;
  3387  001B20  0012               	return	
  3388  001B22                     i2l374:
  3389                           
  3390                           ;usb_device.c: 656: }
  3391                           ;usb_device.c: 668: if(UIRbits.URSTIF && UIEbits.URSTIE)
  3392  001B22  B068               	btfsc	3944,0,c	;volatile
  3393  001B24  A069               	btfss	3945,0,c	;volatile
  3394  001B26  D006               	goto	i2l3983
  3395                           
  3396                           ;usb_device.c: 669: {
  3397                           ;usb_device.c: 670: USBDeviceInit();
  3398  001B28  ECE2  F00C         	call	i2_USBDeviceInit	;wreg free
  3399                           
  3400                           ;usb_device.c: 674: {PIE2bits.USBIE = 1;};
  3401  001B2C  8AA0               	bsf	4000,5,c	;volatile
  3402                           
  3403                           ;usb_device.c: 676: USBDeviceState = DEFAULT_STATE;
  3404  001B2E  0E04               	movlw	4
  3405  001B30  6E3F               	movwf	_USBDeviceState,c	;volatile
  3406                           
  3407                           ;usb_device.c: 686: (UIR &= 0xFE);
  3408  001B32  9068               	bcf	3944,0,c	;volatile
  3409  001B34                     i2l3983:
  3410                           
  3411                           ;usb_device.c: 687: }
  3412                           ;usb_device.c: 692: if(UIRbits.IDLEIF && UIEbits.IDLEIE)
  3413  001B34  B868               	btfsc	3944,4,c	;volatile
  3414  001B36  A869               	btfss	3945,4,c	;volatile
  3415  001B38  D003               	goto	i2l3991
  3416                           
  3417                           ;usb_device.c: 693: {
  3418                           ;usb_device.c: 698: USBSuspend();
  3419  001B3A  EC93  F016         	call	_USBSuspend	;wreg free
  3420                           
  3421                           ;usb_device.c: 701: (UIR &= 0xEF);
  3422  001B3E  9868               	bcf	3944,4,c	;volatile
  3423  001B40                     i2l3991:
  3424                           
  3425                           ;usb_device.c: 702: }
  3426                           ;usb_device.c: 704: if(UIRbits.SOFIF)
  3427  001B40  AC68               	btfss	3944,6,c	;volatile
  3428  001B42  D018               	goto	i2l4007
  3429                           
  3430                           ;usb_device.c: 705: {
  3431                           ;usb_device.c: 706: if(UIEbits.SOFIE)
  3432  001B44  AC69               	btfss	3945,6,c	;volatile
  3433  001B46  D00E               	goto	i2l3997
  3434                           
  3435                           ;usb_device.c: 707: {
  3436                           ;usb_device.c: 708: USER_USB_CALLBACK_EVENT_HANDLER(EVENT_SOF,0,1);
  3437  001B48  0E00               	movlw	0
  3438  001B4A  6E0E               	movwf	USER_USB_CALLBACK_EVENT_HANDLER@event+1,c
  3439  001B4C  0E73               	movlw	115
  3440  001B4E  6E0D               	movwf	USER_USB_CALLBACK_EVENT_HANDLER@event,c
  3441  001B50  0E00               	movlw	0
  3442  001B52  6E0F               	movwf	USER_USB_CALLBACK_EVENT_HANDLER@pdata,c
  3443  001B54  0E00               	movlw	0
  3444  001B56  6E10               	movwf	USER_USB_CALLBACK_EVENT_HANDLER@pdata+1,c
  3445  001B58  0E00               	movlw	0
  3446  001B5A  6E12               	movwf	USER_USB_CALLBACK_EVENT_HANDLER@size+1,c
  3447  001B5C  0E01               	movlw	1
  3448  001B5E  6E11               	movwf	USER_USB_CALLBACK_EVENT_HANDLER@size,c
  3449  001B60  EC0C  F015         	call	_USER_USB_CALLBACK_EVENT_HANDLER	;wreg free
  3450  001B64                     i2l3997:
  3451                           
  3452                           ;usb_device.c: 709: }
  3453                           ;usb_device.c: 710: (UIR &= 0xBF);
  3454  001B64  9C68               	bcf	3944,6,c	;volatile
  3455                           
  3456                           ;usb_device.c: 735: if(USBStatusStageTimeoutCounter != 0u)
  3457  001B66  5042               	movf	_USBStatusStageTimeoutCounter,w,c	;volatile
  3458  001B68  A4D8               	btfss	status,2,c
  3459                           
  3460                           ;usb_device.c: 736: {
  3461                           ;usb_device.c: 737: USBStatusStageTimeoutCounter--;
  3462  001B6A  0642               	decf	_USBStatusStageTimeoutCounter,f,c	;volatile
  3463                           
  3464                           ;usb_device.c: 738: }
  3465                           ;usb_device.c: 744: if(USBStatusStageTimeoutCounter == 0)
  3466  001B6C  5042               	movf	_USBStatusStageTimeoutCounter,w,c	;volatile
  3467  001B6E  B4D8               	btfsc	status,2,c
  3468                           
  3469                           ;usb_device.c: 745: {
  3470                           ;usb_device.c: 746: USBCtrlEPAllowStatusStage();
  3471  001B70  EC1D  F012         	call	_USBCtrlEPAllowStatusStage	;wreg free
  3472  001B74                     i2l4007:
  3473                           
  3474                           ;usb_device.c: 747: }
  3475                           ;usb_device.c: 749: }
  3476                           ;usb_device.c: 751: if(UIRbits.STALLIF && UIEbits.STALLIE)
  3477  001B74  BA68               	btfsc	3944,5,c	;volatile
  3478  001B76  AA69               	btfss	3945,5,c	;volatile
  3479  001B78  D002               	goto	i2l4013
  3480                           
  3481                           ;usb_device.c: 752: {
  3482                           ;usb_device.c: 753: USBStallHandler();
  3483  001B7A  ECA7  F015         	call	_USBStallHandler	;wreg free
  3484  001B7E                     i2l4013:
  3485                           
  3486                           ;usb_device.c: 754: }
  3487                           ;usb_device.c: 756: if(UIRbits.UERRIF && UIEbits.UERRIE)
  3488  001B7E  B268               	btfsc	3944,1,c	;volatile
  3489  001B80  A269               	btfss	3945,1,c	;volatile
  3490  001B82  D00F               	goto	i2l4021
  3491                           
  3492                           ;usb_device.c: 757: {
  3493                           ;usb_device.c: 758: USER_USB_CALLBACK_EVENT_HANDLER(EVENT_BUS_ERROR,0,1);
  3494  001B84  0E7F               	movlw	127
  3495  001B86  6E0E               	movwf	USER_USB_CALLBACK_EVENT_HANDLER@event+1,c
  3496  001B88  680D               	setf	USER_USB_CALLBACK_EVENT_HANDLER@event,c
  3497  001B8A  0E00               	movlw	0
  3498  001B8C  6E0F               	movwf	USER_USB_CALLBACK_EVENT_HANDLER@pdata,c
  3499  001B8E  0E00               	movlw	0
  3500  001B90  6E10               	movwf	USER_USB_CALLBACK_EVENT_HANDLER@pdata+1,c
  3501  001B92  0E00               	movlw	0
  3502  001B94  6E12               	movwf	USER_USB_CALLBACK_EVENT_HANDLER@size+1,c
  3503  001B96  0E01               	movlw	1
  3504  001B98  6E11               	movwf	USER_USB_CALLBACK_EVENT_HANDLER@size,c
  3505  001B9A  EC0C  F015         	call	_USER_USB_CALLBACK_EVENT_HANDLER	;wreg free
  3506                           
  3507                           ;usb_device.c: 759: {UEIR = 0;};
  3508  001B9E  0E00               	movlw	0
  3509  001BA0  6E6A               	movwf	3946,c	;volatile
  3510  001BA2                     i2l4021:
  3511                           
  3512                           ;usb_device.c: 767: }
  3513                           ;usb_device.c: 774: if(USBDeviceState < DEFAULT_STATE)
  3514  001BA2  0E04               	movlw	4
  3515  001BA4  603F               	cpfslt	_USBDeviceState,c	;volatile
  3516  001BA6  D002               	goto	i2l384
  3517                           
  3518                           ;usb_device.c: 775: {
  3519                           ;usb_device.c: 776: {PIR2bits.USBIF = 0;};
  3520  001BA8  9AA1               	bcf	4001,5,c	;volatile
  3521                           
  3522                           ;usb_device.c: 777: return;
  3523  001BAA  0012               	return	
  3524  001BAC                     i2l384:
  3525                           
  3526                           ;usb_device.c: 778: }
  3527                           ;usb_device.c: 783: if(UIEbits.TRNIE)
  3528  001BAC  A669               	btfss	3945,3,c	;volatile
  3529  001BAE  D039               	goto	i2l385
  3530                           
  3531                           ;usb_device.c: 784: {
  3532                           ;usb_device.c: 785: for(i = 0; i < 4u; i++)
  3533  001BB0  0E00               	movlw	0
  3534  001BB2  6E1E               	movwf	USBDeviceTasks@i,c
  3535  001BB4                     i2l4027:
  3536  001BB4  0E03               	movlw	3
  3537  001BB6  641E               	cpfsgt	USBDeviceTasks@i,c
  3538  001BB8  D001               	goto	i2l386
  3539  001BBA  D033               	goto	i2l385
  3540  001BBC                     i2l386:
  3541                           
  3542                           ;usb_device.c: 786: {
  3543                           ;usb_device.c: 787: if(UIRbits.TRNIF)
  3544  001BBC  A668               	btfss	3944,3,c	;volatile
  3545  001BBE  D031               	goto	i2l385
  3546                           
  3547                           ;usb_device.c: 788: {
  3548                           ;usb_device.c: 790: USTATcopy.Val = USTAT;
  3549  001BC0  CF6C F053          	movff	3948,_USTATcopy	;volatile
  3550                           
  3551                           ;usb_device.c: 791: endpoint_number = USTATcopy.endpoint_number;
  3552  001BC4  3053               	rrcf	_USTATcopy,w,c	;volatile
  3553  001BC6  32E8               	rrcf	wreg,f,c
  3554  001BC8  32E8               	rrcf	wreg,f,c
  3555  001BCA  0B0F               	andlw	15
  3556  001BCC  6E45               	movwf	_endpoint_number,c	;volatile
  3557                           
  3558                           ;usb_device.c: 793: (UIR &= 0xF7);
  3559  001BCE  9668               	bcf	3944,3,c	;volatile
  3560                           
  3561                           ;usb_device.c: 798: if(USTATcopy.direction == 0)
  3562  001BD0  B453               	btfsc	_USTATcopy,2,c	;volatile
  3563  001BD2  D007               	goto	i2l4041
  3564                           
  3565                           ;usb_device.c: 799: {
  3566                           ;usb_device.c: 800: ep_data_out[endpoint_number].bits.ping_pong_state ^= 1;
  3567  001BD4  5045               	movf	_endpoint_number,w,c	;volatile
  3568  001BD6  0D01               	mullw	1
  3569  001BD8  0E87               	movlw	low _ep_data_out
  3570  001BDA  24F3               	addwf	prodl,w,c
  3571  001BDC  6ED9               	movwf	fsr2l,c
  3572  001BDE  0E00               	movlw	high _ep_data_out
  3573  001BE0  D006               	goto	L5
  3574  001BE2                     i2l4041:
  3575                           
  3576                           ;usb_device.c: 802: else
  3577                           ;usb_device.c: 803: {
  3578                           ;usb_device.c: 804: ep_data_in[endpoint_number].bits.ping_pong_state ^= 1;
  3579  001BE2  5045               	movf	_endpoint_number,w,c	;volatile
  3580  001BE4  0D01               	mullw	1
  3581  001BE6  0E84               	movlw	low _ep_data_in
  3582  001BE8  24F3               	addwf	prodl,w,c
  3583  001BEA  6ED9               	movwf	fsr2l,c
  3584  001BEC  0E00               	movlw	high _ep_data_in
  3585  001BEE                     L5:
  3586  001BEE  20F4               	addwfc	prodh,w,c
  3587  001BF0  6EDA               	movwf	fsr2h,c
  3588  001BF2  0100               	movlb	0	; () banked
  3589  001BF4  70DF               	btg	indf2,0,c
  3590                           
  3591                           ; BSR set to: 0
  3592                           ;usb_device.c: 805: }
  3593                           ;usb_device.c: 810: if(endpoint_number == 0)
  3594                           
  3595                           ; BSR set to: 0
  3596  001BF6  5045               	movf	_endpoint_number,w,c	;volatile
  3597  001BF8  A4D8               	btfss	status,2,c
  3598  001BFA  D003               	goto	i2l4047
  3599                           
  3600                           ; BSR set to: 0
  3601                           ;usb_device.c: 811: {
  3602                           ;usb_device.c: 812: USBCtrlEPService();
  3603  001BFC  ECB6  F011         	call	_USBCtrlEPService	;wreg free
  3604                           
  3605                           ;usb_device.c: 813: }
  3606  001C00  D00E               	goto	i2l4049
  3607  001C02                     i2l4047:
  3608                           
  3609                           ;usb_device.c: 814: else
  3610                           ;usb_device.c: 815: {
  3611                           ;usb_device.c: 816: USER_USB_CALLBACK_EVENT_HANDLER(EVENT_TRANSFER,(uint8_t*)&USTATcopy.
      +                          Val,0);
  3612  001C02  0E00               	movlw	0
  3613  001C04  6E0E               	movwf	USER_USB_CALLBACK_EVENT_HANDLER@event+1,c
  3614  001C06  0E72               	movlw	114
  3615  001C08  6E0D               	movwf	USER_USB_CALLBACK_EVENT_HANDLER@event,c
  3616  001C0A  0E53               	movlw	low _USTATcopy
  3617  001C0C  6E0F               	movwf	USER_USB_CALLBACK_EVENT_HANDLER@pdata,c
  3618  001C0E  0E00               	movlw	high _USTATcopy
  3619  001C10  6E10               	movwf	USER_USB_CALLBACK_EVENT_HANDLER@pdata+1,c
  3620  001C12  0E00               	movlw	0
  3621  001C14  6E12               	movwf	USER_USB_CALLBACK_EVENT_HANDLER@size+1,c
  3622  001C16  0E00               	movlw	0
  3623  001C18  6E11               	movwf	USER_USB_CALLBACK_EVENT_HANDLER@size,c
  3624  001C1A  EC0C  F015         	call	_USER_USB_CALLBACK_EVENT_HANDLER	;wreg free
  3625  001C1E                     i2l4049:
  3626  001C1E  2A1E               	incf	USBDeviceTasks@i,f,c
  3627  001C20  D7C9               	goto	i2l4027
  3628  001C22                     i2l385:
  3629                           
  3630                           ;usb_device.c: 822: }
  3631                           ;usb_device.c: 823: }
  3632                           ;usb_device.c: 824: }
  3633                           ;usb_device.c: 826: {PIR2bits.USBIF = 0;};
  3634  001C22  9AA1               	bcf	4001,5,c	;volatile
  3635  001C24  0012               	return		;funcret
  3636  001C26                     __end_of_USBDeviceTasks:
  3637                           	opt stack 0
  3638                           pclatu	equ	0xFFB
  3639                           pclath	equ	0xFFA
  3640                           tblptru	equ	0xFF8
  3641                           tblptrh	equ	0xFF7
  3642                           tblptrl	equ	0xFF6
  3643                           tablat	equ	0xFF5
  3644                           prodh	equ	0xFF4
  3645                           prodl	equ	0xFF3
  3646                           intcon	equ	0xFF2
  3647                           postinc0	equ	0xFEE
  3648                           fsr0h	equ	0xFEA
  3649                           fsr0l	equ	0xFE9
  3650                           wreg	equ	0xFE8
  3651                           indf1	equ	0xFE7
  3652                           fsr1h	equ	0xFE2
  3653                           fsr1l	equ	0xFE1
  3654                           bsr	equ	0xFE0
  3655                           indf2	equ	0xFDF
  3656                           postinc2	equ	0xFDE
  3657                           postdec2	equ	0xFDD
  3658                           plusw2	equ	0xFDB
  3659                           fsr2h	equ	0xFDA
  3660                           fsr2l	equ	0xFD9
  3661                           status	equ	0xFD8
  3662                           
  3663 ;; *************** function i2_USBDeviceInit *****************
  3664 ;; Defined at:
  3665 ;;		line 298 in file "usb_device.c"
  3666 ;; Parameters:    Size  Location     Type
  3667 ;;		None
  3668 ;; Auto vars:     Size  Location     Type
  3669 ;;  USBDeviceIni    1    8[COMRAM] unsigned char 
  3670 ;; Return value:  Size  Location     Type
  3671 ;;                  1    wreg      void 
  3672 ;; Registers used:
  3673 ;;		wreg, fsr2l, fsr2h, status,2, status,0, prodl, prodh, cstack
  3674 ;; Tracked objects:
  3675 ;;		On entry : 0/0
  3676 ;;		On exit  : 0/0
  3677 ;;		Unchanged: 0/0
  3678 ;; Data sizes:     COMRAM   BANK0   BANK1   BANK2   BANK3   BANK4   BANK5   BANK6   BANK7
  3679 ;;      Params:         0       0       0       0       0       0       0       0       0
  3680 ;;      Locals:         1       0       0       0       0       0       0       0       0
  3681 ;;      Temps:          0       0       0       0       0       0       0       0       0
  3682 ;;      Totals:         1       0       0       0       0       0       0       0       0
  3683 ;;Total ram usage:        1 bytes
  3684 ;; Hardware stack levels used:    1
  3685 ;; Hardware stack levels required when called:    1
  3686 ;; This function calls:
  3687 ;;		i2_memset
  3688 ;; This function is called by:
  3689 ;;		_USBDeviceTasks
  3690 ;; This function uses a non-reentrant model
  3691 ;;
  3692                           
  3693                           	psect	text16
  3694  0019C4                     __ptext16:
  3695                           	opt stack 0
  3696  0019C4                     i2_USBDeviceInit:
  3697                           	opt stack 23
  3698                           
  3699                           ;usb_device.c: 300: uint8_t i;
  3700                           ;usb_device.c: 302: {PIE2bits.USBIE = 0;};
  3701                           
  3702                           ;incstack = 0
  3703  0019C4  9AA0               	bcf	4000,5,c	;volatile
  3704                           
  3705                           ;usb_device.c: 305: {UEIR = 0;};
  3706  0019C6  0E00               	movlw	0
  3707  0019C8  6E6A               	movwf	3946,c	;volatile
  3708                           
  3709                           ;usb_device.c: 308: {UIR = 0;};
  3710  0019CA  0E00               	movlw	0
  3711  0019CC  6E68               	movwf	3944,c	;volatile
  3712                           
  3713                           ;usb_device.c: 311: UEP0 = 0;
  3714  0019CE  0E00               	movlw	0
  3715  0019D0  6E70               	movwf	3952,c	;volatile
  3716                           
  3717                           ;usb_device.c: 313: memset((void*)&UEP1,0x00,(2));;
  3718  0019D2  0E71               	movlw	113
  3719  0019D4  6E01               	movwf	i2memset@p1,c
  3720  0019D6  0E0F               	movlw	15
  3721  0019D8  6E02               	movwf	i2memset@p1+1,c
  3722  0019DA  0E00               	movlw	0
  3723  0019DC  6E04               	movwf	i2memset@c+1,c
  3724  0019DE  0E00               	movlw	0
  3725  0019E0  6E03               	movwf	i2memset@c,c
  3726  0019E2  0E00               	movlw	0
  3727  0019E4  6E06               	movwf	i2memset@n+1,c
  3728  0019E6  0E02               	movlw	2
  3729  0019E8  6E05               	movwf	i2memset@n,c
  3730  0019EA  EC7D  F016         	call	i2_memset	;wreg free
  3731                           
  3732                           ;usb_device.c: 315: { UCFG = 0x10 | 0x00 | 0x04 | 0x02; UEIE = 0x9F; UIE = 0x39 | 0x40 |
      +                           0x02; };
  3733  0019EE  0E16               	movlw	22
  3734  0019F0  6E6F               	movwf	3951,c	;volatile
  3735  0019F2  0E9F               	movlw	159
  3736  0019F4  6E6B               	movwf	3947,c	;volatile
  3737  0019F6  0E7B               	movlw	123
  3738  0019F8  6E69               	movwf	3945,c	;volatile
  3739                           
  3740                           ;usb_device.c: 318: ;
  3741                           ;usb_device.c: 321: ;
  3742                           ;usb_device.c: 324: for(i=0;i<(sizeof(BDT)/sizeof(BDT_ENTRY));i++)
  3743  0019FA  0E00               	movlw	0
  3744  0019FC  6E09               	movwf	i2USBDeviceInit@i,c
  3745  0019FE                     i2l3747:
  3746  0019FE  0E0B               	movlw	11
  3747  001A00  6409               	cpfsgt	i2USBDeviceInit@i,c
  3748  001A02  D001               	goto	i2l3751
  3749  001A04  D00E               	goto	i2l362
  3750  001A06                     i2l3751:
  3751                           
  3752                           ;usb_device.c: 325: {
  3753                           ;usb_device.c: 326: BDT[i].Val = 0x00;
  3754  001A06  5009               	movf	i2USBDeviceInit@i,w,c
  3755  001A08  0D04               	mullw	4
  3756  001A0A  0E00               	movlw	0
  3757  001A0C  24F3               	addwf	prodl,w,c
  3758  001A0E  6ED9               	movwf	fsr2l,c
  3759  001A10  0E04               	movlw	4
  3760  001A12  20F4               	addwfc	prodh,w,c
  3761  001A14  6EDA               	movwf	fsr2h,c
  3762  001A16  6ADE               	clrf	postinc2,c
  3763  001A18  6ADE               	clrf	postinc2,c
  3764  001A1A  6ADE               	clrf	postinc2,c
  3765  001A1C  6ADD               	clrf	postdec2,c
  3766  001A1E  2A09               	incf	i2USBDeviceInit@i,f,c
  3767  001A20  D7EE               	goto	i2l3747
  3768  001A22                     i2l362:
  3769                           
  3770                           ;usb_device.c: 327: }
  3771                           ;usb_device.c: 330: UCONbits.PPBRST = 1;
  3772  001A22  8C6D               	bsf	3949,6,c	;volatile
  3773                           
  3774                           ;usb_device.c: 333: UADDR = 0x00;
  3775  001A24  0E00               	movlw	0
  3776  001A26  6E6E               	movwf	3950,c	;volatile
  3777                           
  3778                           ;usb_device.c: 336: UCONbits.PKTDIS = 0;
  3779  001A28  986D               	bcf	3949,4,c	;volatile
  3780                           
  3781                           ;usb_device.c: 339: UCONbits.PPBRST = 0;
  3782  001A2A  9C6D               	bcf	3949,6,c	;volatile
  3783                           
  3784                           ;usb_device.c: 342: while(UIRbits.TRNIF == 1)
  3785  001A2C  D00C               	goto	i2l3771
  3786  001A2E                     i2l3763:
  3787                           
  3788                           ;usb_device.c: 343: {
  3789                           ;usb_device.c: 344: (UIR &= 0xF7);
  3790  001A2E  9668               	bcf	3944,3,c	;volatile
  3791                           
  3792                           ;usb_device.c: 346: inPipes[0].info.Val = 0;
  3793  001A30  0E00               	movlw	0
  3794  001A32  0100               	movlb	0	; () banked
  3795  001A34  6F75               	movwf	(_inPipes+3)& (0+255),b	;volatile
  3796                           
  3797                           ; BSR set to: 0
  3798                           ;usb_device.c: 347: outPipes[0].info.Val = 0;
  3799  001A36  0E00               	movlw	0
  3800  001A38  0100               	movlb	0	; () banked
  3801  001A3A  6F6D               	movwf	(_outPipes+3)& (0+255),b	;volatile
  3802                           
  3803                           ; BSR set to: 0
  3804                           ;usb_device.c: 348: outPipes[0].wCount.Val = 0;
  3805  001A3C  0E00               	movlw	0
  3806  001A3E  0100               	movlb	0	; () banked
  3807  001A40  6F6F               	movwf	(_outPipes+5)& (0+255),b	;volatile
  3808  001A42  0E00               	movlw	0
  3809  001A44  6F6E               	movwf	(_outPipes+4)& (0+255),b	;volatile
  3810  001A46                     i2l3771:
  3811  001A46  B668               	btfsc	3944,3,c	;volatile
  3812  001A48  D7F2               	goto	i2l3763
  3813                           
  3814                           ;usb_device.c: 349: }
  3815                           ;usb_device.c: 353: USBStatusStageEnabledFlag1 = 1;
  3816  001A4A  0E01               	movlw	1
  3817  001A4C  6E40               	movwf	_USBStatusStageEnabledFlag1,c	;volatile
  3818                           
  3819                           ;usb_device.c: 354: USBStatusStageEnabledFlag2 = 1;
  3820  001A4E  0E01               	movlw	1
  3821  001A50  6E41               	movwf	_USBStatusStageEnabledFlag2,c	;volatile
  3822                           
  3823                           ;usb_device.c: 356: USBDeferINDataStagePackets = 0;
  3824  001A52  0E00               	movlw	0
  3825  001A54  6E3C               	movwf	_USBDeferINDataStagePackets,c	;volatile
  3826                           
  3827                           ;usb_device.c: 357: USBDeferOUTDataStagePackets = 0;
  3828  001A56  0E00               	movlw	0
  3829  001A58  6E3D               	movwf	_USBDeferOUTDataStagePackets,c	;volatile
  3830                           
  3831                           ;usb_device.c: 358: USBBusIsSuspended = 0;
  3832  001A5A  0E00               	movlw	0
  3833  001A5C  6E3B               	movwf	_USBBusIsSuspended,c	;volatile
  3834                           
  3835                           ;usb_device.c: 362: for(i = 0; i < (uint8_t)(2+1u); i++)
  3836  001A5E  0E00               	movlw	0
  3837  001A60  6E09               	movwf	i2USBDeviceInit@i,c
  3838  001A62                     i2l3775:
  3839  001A62  0E02               	movlw	2
  3840  001A64  6409               	cpfsgt	i2USBDeviceInit@i,c
  3841  001A66  D001               	goto	i2l3779
  3842  001A68  D02E               	goto	i2l3785
  3843  001A6A                     i2l3779:
  3844                           
  3845                           ;usb_device.c: 363: {
  3846                           ;usb_device.c: 364: pBDTEntryIn[i] = 0u;
  3847  001A6A  5009               	movf	i2USBDeviceInit@i,w,c
  3848  001A6C  0D02               	mullw	2
  3849  001A6E  0E78               	movlw	low _pBDTEntryIn
  3850  001A70  24F3               	addwf	prodl,w,c
  3851  001A72  6ED9               	movwf	fsr2l,c
  3852  001A74  0E00               	movlw	high _pBDTEntryIn
  3853  001A76  20F4               	addwfc	prodh,w,c
  3854  001A78  6EDA               	movwf	fsr2h,c
  3855  001A7A  0E00               	movlw	0
  3856  001A7C  6EDE               	movwf	postinc2,c
  3857  001A7E  0E00               	movlw	0
  3858  001A80  6EDD               	movwf	postdec2,c
  3859                           
  3860                           ;usb_device.c: 365: pBDTEntryOut[i] = 0u;
  3861  001A82  5009               	movf	i2USBDeviceInit@i,w,c
  3862  001A84  0D02               	mullw	2
  3863  001A86  0E7E               	movlw	low _pBDTEntryOut
  3864  001A88  24F3               	addwf	prodl,w,c
  3865  001A8A  6ED9               	movwf	fsr2l,c
  3866  001A8C  0E00               	movlw	high _pBDTEntryOut
  3867  001A8E  20F4               	addwfc	prodh,w,c
  3868  001A90  6EDA               	movwf	fsr2h,c
  3869  001A92  0E00               	movlw	0
  3870  001A94  6EDE               	movwf	postinc2,c
  3871  001A96  0E00               	movlw	0
  3872  001A98  6EDD               	movwf	postdec2,c
  3873                           
  3874                           ;usb_device.c: 366: ep_data_in[i].Val = 0u;
  3875  001A9A  5009               	movf	i2USBDeviceInit@i,w,c
  3876  001A9C  0D01               	mullw	1
  3877  001A9E  0E84               	movlw	low _ep_data_in
  3878  001AA0  24F3               	addwf	prodl,w,c
  3879  001AA2  6ED9               	movwf	fsr2l,c
  3880  001AA4  0E00               	movlw	high _ep_data_in
  3881  001AA6  20F4               	addwfc	prodh,w,c
  3882  001AA8  6EDA               	movwf	fsr2h,c
  3883  001AAA  0E00               	movlw	0
  3884  001AAC  6EDF               	movwf	indf2,c
  3885                           
  3886                           ;usb_device.c: 367: ep_data_out[i].Val = 0u;
  3887  001AAE  5009               	movf	i2USBDeviceInit@i,w,c
  3888  001AB0  0D01               	mullw	1
  3889  001AB2  0E87               	movlw	low _ep_data_out
  3890  001AB4  24F3               	addwf	prodl,w,c
  3891  001AB6  6ED9               	movwf	fsr2l,c
  3892  001AB8  0E00               	movlw	high _ep_data_out
  3893  001ABA  20F4               	addwfc	prodh,w,c
  3894  001ABC  6EDA               	movwf	fsr2h,c
  3895  001ABE  0E00               	movlw	0
  3896  001AC0  6EDF               	movwf	indf2,c
  3897  001AC2  2A09               	incf	i2USBDeviceInit@i,f,c
  3898  001AC4  D7CE               	goto	i2l3775
  3899  001AC6                     i2l3785:
  3900                           
  3901                           ;usb_device.c: 368: }
  3902                           ;usb_device.c: 371: pBDTEntryIn[0] = (volatile BDT_ENTRY*)&BDT[2];
  3903  001AC6  0E08               	movlw	8
  3904  001AC8  0100               	movlb	0	; () banked
  3905  001ACA  6F78               	movwf	_pBDTEntryIn& (0+255),b
  3906  001ACC  0E04               	movlw	4
  3907  001ACE  0100               	movlb	0	; () banked
  3908  001AD0  6F79               	movwf	(_pBDTEntryIn+1)& (0+255),b
  3909                           
  3910                           ; BSR set to: 0
  3911                           ;usb_device.c: 373: UEP0 = 0x06|0x10;
  3912  001AD2  0E16               	movlw	22
  3913  001AD4  6E70               	movwf	3952,c	;volatile
  3914                           
  3915                           ; BSR set to: 0
  3916                           ;usb_device.c: 375: BDT[0].ADR = ((uint16_t)(&SetupPkt));
  3917  001AD6  0E04               	movlw	4
  3918  001AD8  0104               	movlb	4	; () banked
  3919  001ADA  6F03               	movwf	3,b	;volatile
  3920  001ADC  0E30               	movlw	48
  3921  001ADE  6F02               	movwf	2,b	;volatile
  3922                           
  3923                           ; BSR set to: 4
  3924                           ;usb_device.c: 376: BDT[0].CNT = 8;
  3925  001AE0  0E08               	movlw	8
  3926  001AE2  0104               	movlb	4	; () banked
  3927  001AE4  6F01               	movwf	1,b	;volatile
  3928                           
  3929                           ; BSR set to: 4
  3930                           ;usb_device.c: 377: BDT[0].STAT.Val = 0x00|0x04;
  3931  001AE6  0E04               	movlw	4
  3932  001AE8  0104               	movlb	4	; () banked
  3933  001AEA  6F00               	movwf	0,b	;volatile
  3934                           
  3935                           ; BSR set to: 4
  3936                           ;usb_device.c: 378: BDT[0].STAT.Val |= 0x80;
  3937  001AEC  0104               	movlb	4	; () banked
  3938  001AEE  8F00               	bsf	0,7,b	;volatile
  3939                           
  3940                           ; BSR set to: 4
  3941                           ;usb_device.c: 381: USBActiveConfiguration = 0;
  3942  001AF0  0E00               	movlw	0
  3943  001AF2  6E52               	movwf	_USBActiveConfiguration,c	;volatile
  3944                           
  3945                           ; BSR set to: 4
  3946                           ;usb_device.c: 384: USBDeviceState = DETACHED_STATE;
  3947  001AF4  0E00               	movlw	0
  3948  001AF6  6E3F               	movwf	_USBDeviceState,c	;volatile
  3949                           
  3950                           ; BSR set to: 4
  3951  001AF8  0012               	return		;funcret
  3952  001AFA                     __end_ofi2_USBDeviceInit:
  3953                           	opt stack 0
  3954                           pclatu	equ	0xFFB
  3955                           pclath	equ	0xFFA
  3956                           tblptru	equ	0xFF8
  3957                           tblptrh	equ	0xFF7
  3958                           tblptrl	equ	0xFF6
  3959                           tablat	equ	0xFF5
  3960                           prodh	equ	0xFF4
  3961                           prodl	equ	0xFF3
  3962                           intcon	equ	0xFF2
  3963                           postinc0	equ	0xFEE
  3964                           fsr0h	equ	0xFEA
  3965                           fsr0l	equ	0xFE9
  3966                           wreg	equ	0xFE8
  3967                           indf1	equ	0xFE7
  3968                           fsr1h	equ	0xFE2
  3969                           fsr1l	equ	0xFE1
  3970                           bsr	equ	0xFE0
  3971                           indf2	equ	0xFDF
  3972                           postinc2	equ	0xFDE
  3973                           postdec2	equ	0xFDD
  3974                           plusw2	equ	0xFDB
  3975                           fsr2h	equ	0xFDA
  3976                           fsr2l	equ	0xFD9
  3977                           status	equ	0xFD8
  3978                           
  3979 ;; *************** function _USBWakeFromSuspend *****************
  3980 ;; Defined at:
  3981 ;;		line 2302 in file "usb_device.c"
  3982 ;; Parameters:    Size  Location     Type
  3983 ;;		None
  3984 ;; Auto vars:     Size  Location     Type
  3985 ;;		None
  3986 ;; Return value:  Size  Location     Type
  3987 ;;                  1    wreg      void 
  3988 ;; Registers used:
  3989 ;;		wreg, fsr2l, fsr2h, status,2, status,0, prodl, prodh, cstack
  3990 ;; Tracked objects:
  3991 ;;		On entry : 0/0
  3992 ;;		On exit  : 0/0
  3993 ;;		Unchanged: 0/0
  3994 ;; Data sizes:     COMRAM   BANK0   BANK1   BANK2   BANK3   BANK4   BANK5   BANK6   BANK7
  3995 ;;      Params:         0       0       0       0       0       0       0       0       0
  3996 ;;      Locals:         0       0       0       0       0       0       0       0       0
  3997 ;;      Temps:          0       0       0       0       0       0       0       0       0
  3998 ;;      Totals:         0       0       0       0       0       0       0       0       0
  3999 ;;Total ram usage:        0 bytes
  4000 ;; Hardware stack levels used:    1
  4001 ;; Hardware stack levels required when called:    5
  4002 ;; This function calls:
  4003 ;;		_USER_USB_CALLBACK_EVENT_HANDLER
  4004 ;; This function is called by:
  4005 ;;		_USBDeviceTasks
  4006 ;; This function uses a non-reentrant model
  4007 ;;
  4008                           
  4009                           	psect	text17
  4010  002CCC                     __ptext17:
  4011                           	opt stack 0
  4012  002CCC                     _USBWakeFromSuspend:
  4013                           	opt stack 19
  4014                           
  4015                           ;usb_device.c: 2304: USBBusIsSuspended = 0;
  4016                           
  4017                           ; BSR set to: 4
  4018                           ;incstack = 0
  4019  002CCC  0E00               	movlw	0
  4020  002CCE  6E3B               	movwf	_USBBusIsSuspended,c	;volatile
  4021                           
  4022                           ;usb_device.c: 2310: USER_USB_CALLBACK_EVENT_HANDLER(EVENT_RESUME,0,0);
  4023  002CD0  0E00               	movlw	0
  4024  002CD2  6E0E               	movwf	USER_USB_CALLBACK_EVENT_HANDLER@event+1,c
  4025  002CD4  0E74               	movlw	116
  4026  002CD6  6E0D               	movwf	USER_USB_CALLBACK_EVENT_HANDLER@event,c
  4027  002CD8  0E00               	movlw	0
  4028  002CDA  6E0F               	movwf	USER_USB_CALLBACK_EVENT_HANDLER@pdata,c
  4029  002CDC  0E00               	movlw	0
  4030  002CDE  6E10               	movwf	USER_USB_CALLBACK_EVENT_HANDLER@pdata+1,c
  4031  002CE0  0E00               	movlw	0
  4032  002CE2  6E12               	movwf	USER_USB_CALLBACK_EVENT_HANDLER@size+1,c
  4033  002CE4  0E00               	movlw	0
  4034  002CE6  6E11               	movwf	USER_USB_CALLBACK_EVENT_HANDLER@size,c
  4035  002CE8  EC0C  F015         	call	_USER_USB_CALLBACK_EVENT_HANDLER	;wreg free
  4036                           
  4037                           ;usb_device.c: 2317: UCONbits.SUSPND = 0;
  4038  002CEC  926D               	bcf	3949,1,c	;volatile
  4039                           
  4040                           ;usb_device.c: 2322: UIEbits.ACTVIE = 0;
  4041  002CEE  9469               	bcf	3945,2,c	;volatile
  4042                           
  4043                           ;usb_device.c: 2340: while(UIRbits.ACTVIF)
  4044  002CF0  D001               	goto	i2l3673
  4045  002CF2                     i2l3671:
  4046                           
  4047                           ;usb_device.c: 2342: {
  4048                           ;usb_device.c: 2343: (UIR &= 0xFB);
  4049  002CF2  9468               	bcf	3944,2,c	;volatile
  4050  002CF4                     i2l3673:
  4051  002CF4  A468               	btfss	3944,2,c	;volatile
  4052  002CF6  0012               	return	
  4053  002CF8  D7FC               	goto	i2l3671
  4054  002CFA                     __end_of_USBWakeFromSuspend:
  4055                           	opt stack 0
  4056                           pclatu	equ	0xFFB
  4057                           pclath	equ	0xFFA
  4058                           tblptru	equ	0xFF8
  4059                           tblptrh	equ	0xFF7
  4060                           tblptrl	equ	0xFF6
  4061                           tablat	equ	0xFF5
  4062                           prodh	equ	0xFF4
  4063                           prodl	equ	0xFF3
  4064                           intcon	equ	0xFF2
  4065                           postinc0	equ	0xFEE
  4066                           fsr0h	equ	0xFEA
  4067                           fsr0l	equ	0xFE9
  4068                           wreg	equ	0xFE8
  4069                           indf1	equ	0xFE7
  4070                           fsr1h	equ	0xFE2
  4071                           fsr1l	equ	0xFE1
  4072                           bsr	equ	0xFE0
  4073                           indf2	equ	0xFDF
  4074                           postinc2	equ	0xFDE
  4075                           postdec2	equ	0xFDD
  4076                           plusw2	equ	0xFDB
  4077                           fsr2h	equ	0xFDA
  4078                           fsr2l	equ	0xFD9
  4079                           status	equ	0xFD8
  4080                           
  4081 ;; *************** function _USBSuspend *****************
  4082 ;; Defined at:
  4083 ;;		line 2245 in file "usb_device.c"
  4084 ;; Parameters:    Size  Location     Type
  4085 ;;		None
  4086 ;; Auto vars:     Size  Location     Type
  4087 ;;		None
  4088 ;; Return value:  Size  Location     Type
  4089 ;;                  1    wreg      void 
  4090 ;; Registers used:
  4091 ;;		wreg, fsr2l, fsr2h, status,2, status,0, prodl, prodh, cstack
  4092 ;; Tracked objects:
  4093 ;;		On entry : 0/0
  4094 ;;		On exit  : 0/0
  4095 ;;		Unchanged: 0/0
  4096 ;; Data sizes:     COMRAM   BANK0   BANK1   BANK2   BANK3   BANK4   BANK5   BANK6   BANK7
  4097 ;;      Params:         0       0       0       0       0       0       0       0       0
  4098 ;;      Locals:         0       0       0       0       0       0       0       0       0
  4099 ;;      Temps:          0       0       0       0       0       0       0       0       0
  4100 ;;      Totals:         0       0       0       0       0       0       0       0       0
  4101 ;;Total ram usage:        0 bytes
  4102 ;; Hardware stack levels used:    1
  4103 ;; Hardware stack levels required when called:    5
  4104 ;; This function calls:
  4105 ;;		_USER_USB_CALLBACK_EVENT_HANDLER
  4106 ;; This function is called by:
  4107 ;;		_USBDeviceTasks
  4108 ;; This function uses a non-reentrant model
  4109 ;;
  4110                           
  4111                           	psect	text18
  4112  002D26                     __ptext18:
  4113                           	opt stack 0
  4114  002D26                     _USBSuspend:
  4115                           	opt stack 19
  4116                           
  4117                           ;usb_device.c: 2270: UIEbits.ACTVIE = 1;
  4118                           
  4119                           ;incstack = 0
  4120  002D26  8469               	bsf	3945,2,c	;volatile
  4121                           
  4122                           ;usb_device.c: 2271: (UIR &= 0xEF);
  4123  002D28  9868               	bcf	3944,4,c	;volatile
  4124                           
  4125                           ;usb_device.c: 2274: UCONbits.SUSPND = 1;
  4126  002D2A  826D               	bsf	3949,1,c	;volatile
  4127                           
  4128                           ;usb_device.c: 2277: USBBusIsSuspended = 1;
  4129  002D2C  0E01               	movlw	1
  4130  002D2E  6E3B               	movwf	_USBBusIsSuspended,c	;volatile
  4131                           
  4132                           ;usb_device.c: 2284: USER_USB_CALLBACK_EVENT_HANDLER(EVENT_SUSPEND,0,0);
  4133  002D30  0E00               	movlw	0
  4134  002D32  6E0E               	movwf	USER_USB_CALLBACK_EVENT_HANDLER@event+1,c
  4135  002D34  0E75               	movlw	117
  4136  002D36  6E0D               	movwf	USER_USB_CALLBACK_EVENT_HANDLER@event,c
  4137  002D38  0E00               	movlw	0
  4138  002D3A  6E0F               	movwf	USER_USB_CALLBACK_EVENT_HANDLER@pdata,c
  4139  002D3C  0E00               	movlw	0
  4140  002D3E  6E10               	movwf	USER_USB_CALLBACK_EVENT_HANDLER@pdata+1,c
  4141  002D40  0E00               	movlw	0
  4142  002D42  6E12               	movwf	USER_USB_CALLBACK_EVENT_HANDLER@size+1,c
  4143  002D44  0E00               	movlw	0
  4144  002D46  6E11               	movwf	USER_USB_CALLBACK_EVENT_HANDLER@size,c
  4145  002D48  EC0C  F015         	call	_USER_USB_CALLBACK_EVENT_HANDLER	;wreg free
  4146  002D4C  0012               	return		;funcret
  4147  002D4E                     __end_of_USBSuspend:
  4148                           	opt stack 0
  4149                           pclatu	equ	0xFFB
  4150                           pclath	equ	0xFFA
  4151                           tblptru	equ	0xFF8
  4152                           tblptrh	equ	0xFF7
  4153                           tblptrl	equ	0xFF6
  4154                           tablat	equ	0xFF5
  4155                           prodh	equ	0xFF4
  4156                           prodl	equ	0xFF3
  4157                           intcon	equ	0xFF2
  4158                           postinc0	equ	0xFEE
  4159                           fsr0h	equ	0xFEA
  4160                           fsr0l	equ	0xFE9
  4161                           wreg	equ	0xFE8
  4162                           indf1	equ	0xFE7
  4163                           fsr1h	equ	0xFE2
  4164                           fsr1l	equ	0xFE1
  4165                           bsr	equ	0xFE0
  4166                           indf2	equ	0xFDF
  4167                           postinc2	equ	0xFDE
  4168                           postdec2	equ	0xFDD
  4169                           plusw2	equ	0xFDB
  4170                           fsr2h	equ	0xFDA
  4171                           fsr2l	equ	0xFD9
  4172                           status	equ	0xFD8
  4173                           
  4174 ;; *************** function _USBStallHandler *****************
  4175 ;; Defined at:
  4176 ;;		line 2202 in file "usb_device.c"
  4177 ;; Parameters:    Size  Location     Type
  4178 ;;		None
  4179 ;; Auto vars:     Size  Location     Type
  4180 ;;		None
  4181 ;; Return value:  Size  Location     Type
  4182 ;;                  1    wreg      void 
  4183 ;; Registers used:
  4184 ;;		wreg, fsr2l, fsr2h, status,2, status,0
  4185 ;; Tracked objects:
  4186 ;;		On entry : 0/0
  4187 ;;		On exit  : 0/0
  4188 ;;		Unchanged: 0/0
  4189 ;; Data sizes:     COMRAM   BANK0   BANK1   BANK2   BANK3   BANK4   BANK5   BANK6   BANK7
  4190 ;;      Params:         0       0       0       0       0       0       0       0       0
  4191 ;;      Locals:         0       0       0       0       0       0       0       0       0
  4192 ;;      Temps:          1       0       0       0       0       0       0       0       0
  4193 ;;      Totals:         1       0       0       0       0       0       0       0       0
  4194 ;;Total ram usage:        1 bytes
  4195 ;; Hardware stack levels used:    1
  4196 ;; This function calls:
  4197 ;;		Nothing
  4198 ;; This function is called by:
  4199 ;;		_USBDeviceTasks
  4200 ;; This function uses a non-reentrant model
  4201 ;;
  4202                           
  4203                           	psect	text19
  4204  002B4E                     __ptext19:
  4205                           	opt stack 0
  4206  002B4E                     _USBStallHandler:
  4207                           	opt stack 24
  4208                           
  4209                           ;usb_device.c: 2214: if(UEP0bits.EPSTALL == 1)
  4210                           
  4211                           ;incstack = 0
  4212  002B4E  A070               	btfss	3952,0,c	;volatile
  4213  002B50  D01D               	goto	i2l524
  4214                           
  4215                           ;usb_device.c: 2215: {
  4216                           ;usb_device.c: 2217: if((pBDTEntryEP0OutCurrent->STAT.Val == 0x80) && (pBDTEntryIn[0]->S
      +                          TAT.Val == (0x80|0x04)))
  4217  002B52  C033  FFD9         	movff	_pBDTEntryEP0OutCurrent,fsr2l
  4218  002B56  C034  FFDA         	movff	_pBDTEntryEP0OutCurrent+1,fsr2h
  4219  002B5A  0E80               	movlw	128
  4220  002B5C  18DE               	xorwf	postinc2,w,c
  4221  002B5E  A4D8               	btfss	status,2,c
  4222  002B60  D014               	goto	i2l3695
  4223  002B62  C078  FFD9         	movff	_pBDTEntryIn,fsr2l
  4224  002B66  C079  FFDA         	movff	_pBDTEntryIn+1,fsr2h
  4225  002B6A  0E84               	movlw	132
  4226  002B6C  18DE               	xorwf	postinc2,w,c
  4227  002B6E  A4D8               	btfss	status,2,c
  4228  002B70  D00C               	goto	i2l3695
  4229                           
  4230                           ;usb_device.c: 2218: {
  4231                           ;usb_device.c: 2220: pBDTEntryEP0OutCurrent->STAT.Val = 0x00|(0x08 & 0x08)|0x04;
  4232  002B72  C033  FFD9         	movff	_pBDTEntryEP0OutCurrent,fsr2l
  4233  002B76  C034  FFDA         	movff	_pBDTEntryEP0OutCurrent+1,fsr2h
  4234  002B7A  0E0C               	movlw	12
  4235  002B7C  6EDF               	movwf	indf2,c
  4236                           
  4237                           ;usb_device.c: 2221: pBDTEntryEP0OutCurrent->STAT.Val |= 0x80;
  4238  002B7E  C033  FFD9         	movff	_pBDTEntryEP0OutCurrent,fsr2l
  4239  002B82  C034  FFDA         	movff	_pBDTEntryEP0OutCurrent+1,fsr2h
  4240  002B86  0E00               	movlw	0
  4241  002B88  8EDB               	bsf	plusw2,7,c
  4242  002B8A                     i2l3695:
  4243                           
  4244                           ;usb_device.c: 2222: }
  4245                           ;usb_device.c: 2223: UEP0bits.EPSTALL = 0;
  4246  002B8A  9070               	bcf	3952,0,c	;volatile
  4247  002B8C                     i2l524:
  4248                           
  4249                           ;usb_device.c: 2224: }
  4250                           ;usb_device.c: 2226: (UIR &= 0xDF);
  4251  002B8C  9A68               	bcf	3944,5,c	;volatile
  4252  002B8E  0012               	return		;funcret
  4253  002B90                     __end_of_USBStallHandler:
  4254                           	opt stack 0
  4255                           pclatu	equ	0xFFB
  4256                           pclath	equ	0xFFA
  4257                           tblptru	equ	0xFF8
  4258                           tblptrh	equ	0xFF7
  4259                           tblptrl	equ	0xFF6
  4260                           tablat	equ	0xFF5
  4261                           prodh	equ	0xFF4
  4262                           prodl	equ	0xFF3
  4263                           intcon	equ	0xFF2
  4264                           postinc0	equ	0xFEE
  4265                           fsr0h	equ	0xFEA
  4266                           fsr0l	equ	0xFE9
  4267                           wreg	equ	0xFE8
  4268                           indf1	equ	0xFE7
  4269                           fsr1h	equ	0xFE2
  4270                           fsr1l	equ	0xFE1
  4271                           bsr	equ	0xFE0
  4272                           indf2	equ	0xFDF
  4273                           postinc2	equ	0xFDE
  4274                           postdec2	equ	0xFDD
  4275                           plusw2	equ	0xFDB
  4276                           fsr2h	equ	0xFDA
  4277                           fsr2l	equ	0xFD9
  4278                           status	equ	0xFD8
  4279                           
  4280 ;; *************** function _USBCtrlEPService *****************
  4281 ;; Defined at:
  4282 ;;		line 2369 in file "usb_device.c"
  4283 ;; Parameters:    Size  Location     Type
  4284 ;;		None
  4285 ;; Auto vars:     Size  Location     Type
  4286 ;;  setup_cnt       1   28[COMRAM] unsigned char 
  4287 ;; Return value:  Size  Location     Type
  4288 ;;                  1    wreg      void 
  4289 ;; Registers used:
  4290 ;;		wreg, fsr1l, fsr1h, fsr2l, fsr2h, status,2, status,0, tblptrl, tblptrh, tblptru, prodl, prodh, cstack
  4291 ;; Tracked objects:
  4292 ;;		On entry : 0/0
  4293 ;;		On exit  : 0/0
  4294 ;;		Unchanged: 0/0
  4295 ;; Data sizes:     COMRAM   BANK0   BANK1   BANK2   BANK3   BANK4   BANK5   BANK6   BANK7
  4296 ;;      Params:         0       0       0       0       0       0       0       0       0
  4297 ;;      Locals:         1       0       0       0       0       0       0       0       0
  4298 ;;      Temps:          2       0       0       0       0       0       0       0       0
  4299 ;;      Totals:         3       0       0       0       0       0       0       0       0
  4300 ;;Total ram usage:        3 bytes
  4301 ;; Hardware stack levels used:    1
  4302 ;; Hardware stack levels required when called:    8
  4303 ;; This function calls:
  4304 ;;		_USBCtrlTrfInHandler
  4305 ;;		_USBCtrlTrfOutHandler
  4306 ;;		_USBCtrlTrfSetupHandler
  4307 ;; This function is called by:
  4308 ;;		_USBDeviceTasks
  4309 ;; This function uses a non-reentrant model
  4310 ;;
  4311                           
  4312                           	psect	text20
  4313  00236C                     __ptext20:
  4314                           	opt stack 0
  4315  00236C                     _USBCtrlEPService:
  4316                           	opt stack 16
  4317                           
  4318                           ;usb_device.c: 2375: USBStatusStageTimeoutCounter = (uint8_t)45;
  4319                           
  4320                           ;incstack = 0
  4321  00236C  0E2D               	movlw	45
  4322  00236E  6E42               	movwf	_USBStatusStageTimeoutCounter,c	;volatile
  4323                           
  4324                           ;usb_device.c: 2379: if((USTATcopy.Val & ~0x02) == 0x00)
  4325  002370  C053  F01B         	movff	_USTATcopy,??_USBCtrlEPService	;volatile
  4326  002374  0EFD               	movlw	253
  4327  002376  161B               	andwf	??_USBCtrlEPService,f,c
  4328  002378  A4D8               	btfss	status,2,c
  4329  00237A  D057               	goto	i2l3729
  4330                           
  4331                           ;usb_device.c: 2380: {
  4332                           ;usb_device.c: 2383: pBDTEntryEP0OutCurrent = (volatile BDT_ENTRY*)&BDT[(USTATcopy.Val &
      +                           0x7E)>>1];
  4333  00237C  C053  F01B         	movff	_USTATcopy,??_USBCtrlEPService	;volatile
  4334  002380  90D8               	bcf	status,0,c
  4335  002382  321B               	rrcf	??_USBCtrlEPService,f,c
  4336  002384  0E3F               	movlw	63
  4337  002386  161B               	andwf	??_USBCtrlEPService,f,c
  4338  002388  501B               	movf	??_USBCtrlEPService,w,c
  4339  00238A  0D04               	mullw	4
  4340  00238C  0E00               	movlw	0
  4341  00238E  24F3               	addwf	prodl,w,c
  4342  002390  6E33               	movwf	_pBDTEntryEP0OutCurrent,c
  4343  002392  0E04               	movlw	4
  4344  002394  20F4               	addwfc	prodh,w,c
  4345  002396  6E34               	movwf	_pBDTEntryEP0OutCurrent+1,c
  4346                           
  4347                           ;usb_device.c: 2391: pBDTEntryEP0OutNext = pBDTEntryEP0OutCurrent;
  4348  002398  C033  F035         	movff	_pBDTEntryEP0OutCurrent,_pBDTEntryEP0OutNext
  4349  00239C  C034  F036         	movff	_pBDTEntryEP0OutCurrent+1,_pBDTEntryEP0OutNext+1
  4350                           
  4351                           ;usb_device.c: 2393: ((uint8_t_VAL*)&pBDTEntryEP0OutNext)->Val ^= 0x0004;
  4352  0023A0  0E04               	movlw	4
  4353  0023A2  1A35               	xorwf	_pBDTEntryEP0OutNext,f,c
  4354                           
  4355                           ;usb_device.c: 2396: if(pBDTEntryEP0OutCurrent->STAT.PID == 0xD)
  4356  0023A4  C033  FFD9         	movff	_pBDTEntryEP0OutCurrent,fsr2l
  4357  0023A8  C034  FFDA         	movff	_pBDTEntryEP0OutCurrent+1,fsr2h
  4358  0023AC  30DF               	rrcf	indf2,w,c
  4359  0023AE  32E8               	rrcf	wreg,f,c
  4360  0023B0  0B0F               	andlw	15
  4361  0023B2  0A0D               	xorlw	13
  4362  0023B4  A4D8               	btfss	status,2,c
  4363  0023B6  D036               	goto	i2l3727
  4364                           
  4365                           ;usb_device.c: 2397: {
  4366                           ;usb_device.c: 2398: unsigned char setup_cnt;
  4367                           ;usb_device.c: 2404: for(setup_cnt = 0; setup_cnt < 8u; setup_cnt++)
  4368  0023B8  0E00               	movlw	0
  4369  0023BA  6E1D               	movwf	USBCtrlEPService@setup_cnt,c
  4370  0023BC                     i2l3711:
  4371  0023BC  0E07               	movlw	7
  4372  0023BE  641D               	cpfsgt	USBCtrlEPService@setup_cnt,c
  4373  0023C0  D001               	goto	i2l3715
  4374  0023C2  D023               	goto	i2l3723
  4375  0023C4                     i2l3715:
  4376                           
  4377                           ;usb_device.c: 2405: {
  4378                           ;usb_device.c: 2406: *(uint8_t*)((uint8_t*)&SetupPkt + setup_cnt) = *(uint8_t*)((void *)
      +                          (pBDTEntryEP0OutCurrent->ADR));
  4379  0023C4  EE20 F002          	lfsr	2,2
  4380  0023C8  5033               	movf	_pBDTEntryEP0OutCurrent,w,c
  4381  0023CA  26D9               	addwf	fsr2l,f,c
  4382  0023CC  5034               	movf	_pBDTEntryEP0OutCurrent+1,w,c
  4383  0023CE  22DA               	addwfc	fsr2h,f,c
  4384  0023D0  CFDE F01B          	movff	postinc2,??_USBCtrlEPService
  4385  0023D4  CFDD F01C          	movff	postdec2,??_USBCtrlEPService+1
  4386  0023D8  C01B  FFD9         	movff	??_USBCtrlEPService,fsr2l
  4387  0023DC  C01C  FFDA         	movff	??_USBCtrlEPService+1,fsr2h
  4388  0023E0  501D               	movf	USBCtrlEPService@setup_cnt,w,c
  4389  0023E2  0D01               	mullw	1
  4390  0023E4  0E30               	movlw	48
  4391  0023E6  24F3               	addwf	prodl,w,c
  4392  0023E8  6EE1               	movwf	fsr1l,c
  4393  0023EA  0E04               	movlw	4
  4394  0023EC  20F4               	addwfc	prodh,w,c
  4395  0023EE  6EE2               	movwf	fsr1h,c
  4396  0023F0  CFDF FFE7          	movff	indf2,indf1
  4397                           
  4398                           ;usb_device.c: 2407: pBDTEntryEP0OutCurrent->ADR++;
  4399  0023F4  EE20 F002          	lfsr	2,2
  4400  0023F8  5033               	movf	_pBDTEntryEP0OutCurrent,w,c
  4401  0023FA  26D9               	addwf	fsr2l,f,c
  4402  0023FC  5034               	movf	_pBDTEntryEP0OutCurrent+1,w,c
  4403  0023FE  22DA               	addwfc	fsr2h,f,c
  4404  002400  2ADE               	incf	postinc2,f,c
  4405  002402  0E00               	movlw	0
  4406  002404  22DD               	addwfc	postdec2,f,c
  4407  002406  2A1D               	incf	USBCtrlEPService@setup_cnt,f,c
  4408  002408  D7D9               	goto	i2l3711
  4409  00240A                     i2l3723:
  4410                           
  4411                           ;usb_device.c: 2408: }
  4412                           ;usb_device.c: 2409: pBDTEntryEP0OutCurrent->ADR = ((uint16_t)(&SetupPkt));
  4413  00240A  EE20 F002          	lfsr	2,2
  4414  00240E  5033               	movf	_pBDTEntryEP0OutCurrent,w,c
  4415  002410  26D9               	addwf	fsr2l,f,c
  4416  002412  5034               	movf	_pBDTEntryEP0OutCurrent+1,w,c
  4417  002414  22DA               	addwfc	fsr2h,f,c
  4418  002416  0E30               	movlw	48
  4419  002418  6EDE               	movwf	postinc2,c
  4420  00241A  0E04               	movlw	4
  4421  00241C  6EDD               	movwf	postdec2,c
  4422                           
  4423                           ;usb_device.c: 2412: USBCtrlTrfSetupHandler();
  4424  00241E  EC85  F014         	call	_USBCtrlTrfSetupHandler	;wreg free
  4425                           
  4426                           ;usb_device.c: 2413: }
  4427  002422  0012               	return	
  4428  002424                     i2l3727:
  4429                           
  4430                           ;usb_device.c: 2414: else
  4431                           ;usb_device.c: 2415: {
  4432                           ;usb_device.c: 2417: USBCtrlTrfOutHandler();
  4433  002424  EC79  F015         	call	_USBCtrlTrfOutHandler	;wreg free
  4434                           
  4435                           ;usb_device.c: 2418: }
  4436                           ;usb_device.c: 2419: }
  4437  002428  0012               	return	
  4438  00242A                     i2l3729:
  4439                           
  4440                           ;usb_device.c: 2420: else if((USTATcopy.Val & ~0x02) == 0x04)
  4441  00242A  5053               	movf	_USTATcopy,w,c	;volatile
  4442  00242C  0BFD               	andlw	253
  4443  00242E  0A04               	xorlw	4
  4444  002430  A4D8               	btfss	status,2,c
  4445  002432  0012               	return	
  4446                           
  4447                           ;usb_device.c: 2421: {
  4448                           ;usb_device.c: 2424: USBCtrlTrfInHandler();
  4449  002434  EC7F  F012         	call	_USBCtrlTrfInHandler	;wreg free
  4450  002438  0012               	return	
  4451  00243A                     __end_of_USBCtrlEPService:
  4452                           	opt stack 0
  4453                           pclatu	equ	0xFFB
  4454                           pclath	equ	0xFFA
  4455                           tblptru	equ	0xFF8
  4456                           tblptrh	equ	0xFF7
  4457                           tblptrl	equ	0xFF6
  4458                           tablat	equ	0xFF5
  4459                           prodh	equ	0xFF4
  4460                           prodl	equ	0xFF3
  4461                           intcon	equ	0xFF2
  4462                           postinc0	equ	0xFEE
  4463                           fsr0h	equ	0xFEA
  4464                           fsr0l	equ	0xFE9
  4465                           wreg	equ	0xFE8
  4466                           indf1	equ	0xFE7
  4467                           fsr1h	equ	0xFE2
  4468                           fsr1l	equ	0xFE1
  4469                           bsr	equ	0xFE0
  4470                           indf2	equ	0xFDF
  4471                           postinc2	equ	0xFDE
  4472                           postdec2	equ	0xFDD
  4473                           plusw2	equ	0xFDB
  4474                           fsr2h	equ	0xFDA
  4475                           fsr2l	equ	0xFD9
  4476                           status	equ	0xFD8
  4477                           
  4478 ;; *************** function _USBCtrlTrfSetupHandler *****************
  4479 ;; Defined at:
  4480 ;;		line 2469 in file "usb_device.c"
  4481 ;; Parameters:    Size  Location     Type
  4482 ;;		None
  4483 ;; Auto vars:     Size  Location     Type
  4484 ;;		None
  4485 ;; Return value:  Size  Location     Type
  4486 ;;                  1    wreg      void 
  4487 ;; Registers used:
  4488 ;;		wreg, fsr1l, fsr1h, fsr2l, fsr2h, status,2, status,0, tblptrl, tblptrh, tblptru, prodl, prodh, cstack
  4489 ;; Tracked objects:
  4490 ;;		On entry : 0/0
  4491 ;;		On exit  : 0/0
  4492 ;;		Unchanged: 0/0
  4493 ;; Data sizes:     COMRAM   BANK0   BANK1   BANK2   BANK3   BANK4   BANK5   BANK6   BANK7
  4494 ;;      Params:         0       0       0       0       0       0       0       0       0
  4495 ;;      Locals:         0       0       0       0       0       0       0       0       0
  4496 ;;      Temps:          0       0       0       0       0       0       0       0       0
  4497 ;;      Totals:         0       0       0       0       0       0       0       0       0
  4498 ;;Total ram usage:        0 bytes
  4499 ;; Hardware stack levels used:    1
  4500 ;; Hardware stack levels required when called:    7
  4501 ;; This function calls:
  4502 ;;		_USBCheckStdRequest
  4503 ;;		_USBCtrlEPServiceComplete
  4504 ;;		_USER_USB_CALLBACK_EVENT_HANDLER
  4505 ;; This function is called by:
  4506 ;;		_USBCtrlEPService
  4507 ;; This function uses a non-reentrant model
  4508 ;;
  4509                           
  4510                           	psect	text21
  4511  00290A                     __ptext21:
  4512                           	opt stack 0
  4513  00290A                     _USBCtrlTrfSetupHandler:
  4514                           	opt stack 16
  4515                           
  4516                           ;usb_device.c: 2474: shortPacketStatus = 0;
  4517                           
  4518                           ;incstack = 0
  4519  00290A  0E00               	movlw	0
  4520  00290C  6E46               	movwf	_shortPacketStatus,c	;volatile
  4521                           
  4522                           ;usb_device.c: 2475: USBDeferStatusStagePacket = 0;
  4523  00290E  0E00               	movlw	0
  4524  002910  6E3E               	movwf	_USBDeferStatusStagePacket,c	;volatile
  4525                           
  4526                           ;usb_device.c: 2476: USBDeferINDataStagePackets = 0;
  4527  002912  0E00               	movlw	0
  4528  002914  6E3C               	movwf	_USBDeferINDataStagePackets,c	;volatile
  4529                           
  4530                           ;usb_device.c: 2477: USBDeferOUTDataStagePackets = 0;
  4531  002916  0E00               	movlw	0
  4532  002918  6E3D               	movwf	_USBDeferOUTDataStagePackets,c	;volatile
  4533                           
  4534                           ;usb_device.c: 2478: BothEP0OutUOWNsSet = 0;
  4535  00291A  0E00               	movlw	0
  4536  00291C  6E39               	movwf	_BothEP0OutUOWNsSet,c	;volatile
  4537                           
  4538                           ;usb_device.c: 2479: controlTransferState = 0;
  4539  00291E  0E00               	movlw	0
  4540  002920  6E43               	movwf	_controlTransferState,c	;volatile
  4541                           
  4542                           ;usb_device.c: 2488: pBDTEntryIn[0]->STAT.Val &= ~(0x80);
  4543  002922  C078  FFD9         	movff	_pBDTEntryIn,fsr2l
  4544  002926  C079  FFDA         	movff	_pBDTEntryIn+1,fsr2h
  4545  00292A  0E7F               	movlw	127
  4546  00292C  16DF               	andwf	indf2,f,c
  4547                           
  4548                           ;usb_device.c: 2489: ((uint8_t_VAL*)&pBDTEntryIn[0])->Val ^= 0x0004;
  4549  00292E  0E04               	movlw	4
  4550  002930  0100               	movlb	0	; () banked
  4551  002932  1B78               	xorwf	_pBDTEntryIn& (0+255),f,b
  4552                           
  4553                           ; BSR set to: 0
  4554                           ;usb_device.c: 2490: pBDTEntryIn[0]->STAT.Val &= ~(0x80);
  4555  002934  C078  FFD9         	movff	_pBDTEntryIn,fsr2l
  4556  002938  C079  FFDA         	movff	_pBDTEntryIn+1,fsr2h
  4557  00293C  0E7F               	movlw	127
  4558  00293E  16DF               	andwf	indf2,f,c
  4559                           
  4560                           ; BSR set to: 0
  4561                           ;usb_device.c: 2491: ((uint8_t_VAL*)&pBDTEntryIn[0])->Val ^= 0x0004;
  4562  002940  0E04               	movlw	4
  4563  002942  0100               	movlb	0	; () banked
  4564  002944  1B78               	xorwf	_pBDTEntryIn& (0+255),f,b
  4565                           
  4566                           ; BSR set to: 0
  4567                           ;usb_device.c: 2492: pBDTEntryEP0OutNext->STAT.Val &= ~(0x80);
  4568  002946  C035  FFD9         	movff	_pBDTEntryEP0OutNext,fsr2l
  4569  00294A  C036  FFDA         	movff	_pBDTEntryEP0OutNext+1,fsr2h
  4570  00294E  0E7F               	movlw	127
  4571  002950  16DF               	andwf	indf2,f,c
  4572                           
  4573                           ; BSR set to: 0
  4574                           ;usb_device.c: 2494: inPipes[0].info.Val = 0;
  4575  002952  0E00               	movlw	0
  4576  002954  0100               	movlb	0	; () banked
  4577  002956  6F75               	movwf	(_inPipes+3)& (0+255),b	;volatile
  4578                           
  4579                           ; BSR set to: 0
  4580                           ;usb_device.c: 2495: inPipes[0].wCount.Val = 0;
  4581  002958  0E00               	movlw	0
  4582  00295A  0100               	movlb	0	; () banked
  4583  00295C  6F77               	movwf	(_inPipes+5)& (0+255),b	;volatile
  4584  00295E  0E00               	movlw	0
  4585  002960  6F76               	movwf	(_inPipes+4)& (0+255),b	;volatile
  4586                           
  4587                           ; BSR set to: 0
  4588                           ;usb_device.c: 2496: outPipes[0].info.Val = 0;
  4589  002962  0E00               	movlw	0
  4590  002964  0100               	movlb	0	; () banked
  4591  002966  6F6D               	movwf	(_outPipes+3)& (0+255),b	;volatile
  4592                           
  4593                           ; BSR set to: 0
  4594                           ;usb_device.c: 2497: outPipes[0].wCount.Val = 0;
  4595  002968  0E00               	movlw	0
  4596  00296A  0100               	movlb	0	; () banked
  4597  00296C  6F6F               	movwf	(_outPipes+5)& (0+255),b	;volatile
  4598  00296E  0E00               	movlw	0
  4599  002970  6F6E               	movwf	(_outPipes+4)& (0+255),b	;volatile
  4600                           
  4601                           ; BSR set to: 0
  4602                           ;usb_device.c: 2503: USBCheckStdRequest();
  4603  002972  EC19  F00F         	call	_USBCheckStdRequest	;wreg free
  4604                           
  4605                           ;usb_device.c: 2504: USER_USB_CALLBACK_EVENT_HANDLER(EVENT_EP0_REQUEST,0,0);
  4606  002976  0E00               	movlw	0
  4607  002978  6E0E               	movwf	USER_USB_CALLBACK_EVENT_HANDLER@event+1,c
  4608  00297A  0E03               	movlw	3
  4609  00297C  6E0D               	movwf	USER_USB_CALLBACK_EVENT_HANDLER@event,c
  4610  00297E  0E00               	movlw	0
  4611  002980  6E0F               	movwf	USER_USB_CALLBACK_EVENT_HANDLER@pdata,c
  4612  002982  0E00               	movlw	0
  4613  002984  6E10               	movwf	USER_USB_CALLBACK_EVENT_HANDLER@pdata+1,c
  4614  002986  0E00               	movlw	0
  4615  002988  6E12               	movwf	USER_USB_CALLBACK_EVENT_HANDLER@size+1,c
  4616  00298A  0E00               	movlw	0
  4617  00298C  6E11               	movwf	USER_USB_CALLBACK_EVENT_HANDLER@size,c
  4618  00298E  EC0C  F015         	call	_USER_USB_CALLBACK_EVENT_HANDLER	;wreg free
  4619                           
  4620                           ;usb_device.c: 2517: USBCtrlEPServiceComplete();
  4621  002992  EC9F  F00E         	call	_USBCtrlEPServiceComplete	;wreg free
  4622  002996  0012               	return		;funcret
  4623  002998                     __end_of_USBCtrlTrfSetupHandler:
  4624                           	opt stack 0
  4625                           pclatu	equ	0xFFB
  4626                           pclath	equ	0xFFA
  4627                           tblptru	equ	0xFF8
  4628                           tblptrh	equ	0xFF7
  4629                           tblptrl	equ	0xFF6
  4630                           tablat	equ	0xFF5
  4631                           prodh	equ	0xFF4
  4632                           prodl	equ	0xFF3
  4633                           intcon	equ	0xFF2
  4634                           postinc0	equ	0xFEE
  4635                           fsr0h	equ	0xFEA
  4636                           fsr0l	equ	0xFE9
  4637                           wreg	equ	0xFE8
  4638                           indf1	equ	0xFE7
  4639                           fsr1h	equ	0xFE2
  4640                           fsr1l	equ	0xFE1
  4641                           bsr	equ	0xFE0
  4642                           indf2	equ	0xFDF
  4643                           postinc2	equ	0xFDE
  4644                           postdec2	equ	0xFDD
  4645                           plusw2	equ	0xFDB
  4646                           fsr2h	equ	0xFDA
  4647                           fsr2l	equ	0xFD9
  4648                           status	equ	0xFD8
  4649                           
  4650 ;; *************** function _USBCtrlEPServiceComplete *****************
  4651 ;; Defined at:
  4652 ;;		line 1616 in file "usb_device.c"
  4653 ;; Parameters:    Size  Location     Type
  4654 ;;		None
  4655 ;; Auto vars:     Size  Location     Type
  4656 ;;		None
  4657 ;; Return value:  Size  Location     Type
  4658 ;;                  1    wreg      void 
  4659 ;; Registers used:
  4660 ;;		wreg, fsr1l, fsr1h, fsr2l, fsr2h, status,2, status,0, tblptrl, tblptrh, tblptru, cstack
  4661 ;; Tracked objects:
  4662 ;;		On entry : 0/0
  4663 ;;		On exit  : 0/0
  4664 ;;		Unchanged: 0/0
  4665 ;; Data sizes:     COMRAM   BANK0   BANK1   BANK2   BANK3   BANK4   BANK5   BANK6   BANK7
  4666 ;;      Params:         0       0       0       0       0       0       0       0       0
  4667 ;;      Locals:         0       0       0       0       0       0       0       0       0
  4668 ;;      Temps:          0       0       0       0       0       0       0       0       0
  4669 ;;      Totals:         0       0       0       0       0       0       0       0       0
  4670 ;;Total ram usage:        0 bytes
  4671 ;; Hardware stack levels used:    1
  4672 ;; Hardware stack levels required when called:    2
  4673 ;; This function calls:
  4674 ;;		_USBCtrlEPAllowDataStage
  4675 ;;		_USBCtrlEPAllowStatusStage
  4676 ;; This function is called by:
  4677 ;;		_USBCtrlTrfSetupHandler
  4678 ;; This function uses a non-reentrant model
  4679 ;;
  4680                           
  4681                           	psect	text22
  4682  001D3E                     __ptext22:
  4683                           	opt stack 0
  4684  001D3E                     _USBCtrlEPServiceComplete:
  4685                           	opt stack 20
  4686                           
  4687                           ;usb_device.c: 1622: UCONbits.PKTDIS = 0;
  4688                           
  4689                           ;incstack = 0
  4690  001D3E  986D               	bcf	3949,4,c	;volatile
  4691                           
  4692                           ;usb_device.c: 1628: if(inPipes[0].info.bits.busy == 0)
  4693  001D40  0100               	movlb	0	; () banked
  4694  001D42  BF75               	btfsc	(_inPipes+3)& (0+255),7,b	;volatile
  4695  001D44  D039               	goto	i2l448
  4696                           
  4697                           ; BSR set to: 0
  4698                           ;usb_device.c: 1629: {
  4699                           ;usb_device.c: 1630: if(outPipes[0].info.bits.busy == 1)
  4700  001D46  0100               	movlb	0	; () banked
  4701  001D48  AF6D               	btfss	(_outPipes+3)& (0+255),7,b	;volatile
  4702  001D4A  D00B               	goto	i2l3307
  4703                           
  4704                           ; BSR set to: 0
  4705                           ;usb_device.c: 1631: {
  4706                           ;usb_device.c: 1632: controlTransferState = 2;
  4707  001D4C  0E02               	movlw	2
  4708  001D4E  6E43               	movwf	_controlTransferState,c	;volatile
  4709                           
  4710                           ;usb_device.c: 1643: if(USBDeferOUTDataStagePackets == 0)
  4711  001D50  503D               	movf	_USBDeferOUTDataStagePackets,w,c	;volatile
  4712  001D52  B4D8               	btfsc	status,2,c
  4713                           
  4714                           ; BSR set to: 0
  4715                           ;usb_device.c: 1644: {
  4716                           ;usb_device.c: 1645: USBCtrlEPAllowDataStage();
  4717  001D54  ECEC  F013         	call	_USBCtrlEPAllowDataStage	;wreg free
  4718                           
  4719                           ;usb_device.c: 1646: }
  4720                           ;usb_device.c: 1650: USBStatusStageEnabledFlag2 = 0;
  4721  001D58  0E00               	movlw	0
  4722  001D5A  6E41               	movwf	_USBStatusStageEnabledFlag2,c	;volatile
  4723                           
  4724                           ;usb_device.c: 1651: USBStatusStageEnabledFlag1 = 0;
  4725  001D5C  0E00               	movlw	0
  4726  001D5E  6E40               	movwf	_USBStatusStageEnabledFlag1,c	;volatile
  4727                           
  4728                           ;usb_device.c: 1652: }
  4729  001D60  0012               	return	
  4730  001D62                     i2l3307:
  4731                           
  4732                           ;usb_device.c: 1653: else
  4733                           ;usb_device.c: 1654: {
  4734                           ;usb_device.c: 1659: pBDTEntryEP0OutNext->CNT = 8;
  4735  001D62  EE20 F001          	lfsr	2,1
  4736  001D66  5035               	movf	_pBDTEntryEP0OutNext,w,c
  4737  001D68  26D9               	addwf	fsr2l,f,c
  4738  001D6A  5036               	movf	_pBDTEntryEP0OutNext+1,w,c
  4739  001D6C  22DA               	addwfc	fsr2h,f,c
  4740  001D6E  0E08               	movlw	8
  4741  001D70  6EDF               	movwf	indf2,c
  4742                           
  4743                           ;usb_device.c: 1660: pBDTEntryEP0OutNext->ADR = ((uint16_t)(&SetupPkt));
  4744  001D72  EE20 F002          	lfsr	2,2
  4745  001D76  5035               	movf	_pBDTEntryEP0OutNext,w,c
  4746  001D78  26D9               	addwf	fsr2l,f,c
  4747  001D7A  5036               	movf	_pBDTEntryEP0OutNext+1,w,c
  4748  001D7C  22DA               	addwfc	fsr2h,f,c
  4749  001D7E  0E30               	movlw	48
  4750  001D80  6EDE               	movwf	postinc2,c
  4751  001D82  0E04               	movlw	4
  4752  001D84  6EDD               	movwf	postdec2,c
  4753                           
  4754                           ;usb_device.c: 1661: pBDTEntryEP0OutNext->STAT.Val = 0x00|(0x08 & 0x08)|0x04;
  4755  001D86  C035  FFD9         	movff	_pBDTEntryEP0OutNext,fsr2l
  4756  001D8A  C036  FFDA         	movff	_pBDTEntryEP0OutNext+1,fsr2h
  4757  001D8E  0E0C               	movlw	12
  4758  001D90  6EDF               	movwf	indf2,c
  4759                           
  4760                           ;usb_device.c: 1662: pBDTEntryEP0OutNext->STAT.Val |= 0x80;
  4761  001D92  C035  FFD9         	movff	_pBDTEntryEP0OutNext,fsr2l
  4762  001D96  C036  FFDA         	movff	_pBDTEntryEP0OutNext+1,fsr2h
  4763  001D9A  0E00               	movlw	0
  4764  001D9C  8EDB               	bsf	plusw2,7,c
  4765                           
  4766                           ;usb_device.c: 1663: pBDTEntryIn[0]->STAT.Val = 0x04;
  4767  001D9E  C078  FFD9         	movff	_pBDTEntryIn,fsr2l
  4768  001DA2  C079  FFDA         	movff	_pBDTEntryIn+1,fsr2h
  4769  001DA6  0E04               	movlw	4
  4770  001DA8  6EDF               	movwf	indf2,c
  4771                           
  4772                           ;usb_device.c: 1664: pBDTEntryIn[0]->STAT.Val |= 0x80;
  4773  001DAA  C078  FFD9         	movff	_pBDTEntryIn,fsr2l
  4774  001DAE  C079  FFDA         	movff	_pBDTEntryIn+1,fsr2h
  4775  001DB2  0E00               	movlw	0
  4776  001DB4  8EDB               	bsf	plusw2,7,c
  4777                           
  4778                           ;usb_device.c: 1665: }
  4779                           ;usb_device.c: 1666: }
  4780  001DB6  0012               	return	
  4781  001DB8                     i2l448:
  4782                           
  4783                           ; BSR set to: 0
  4784                           ;usb_device.c: 1667: else
  4785                           ;usb_device.c: 1668: {
  4786                           ;usb_device.c: 1669: if(SetupPkt.DataDir == (0x80>>7))
  4787  001DB8  0104               	movlb	4	; () banked
  4788  001DBA  AF30               	btfss	48,7,b	;volatile
  4789  001DBC  D010               	goto	i2l3327
  4790                           
  4791                           ; BSR set to: 4
  4792                           ;usb_device.c: 1670: {
  4793                           ;usb_device.c: 1671: controlTransferState = 1;
  4794  001DBE  0E01               	movlw	1
  4795  001DC0  6E43               	movwf	_controlTransferState,c	;volatile
  4796                           
  4797                           ;usb_device.c: 1685: if(USBDeferINDataStagePackets == 0)
  4798  001DC2  503C               	movf	_USBDeferINDataStagePackets,w,c	;volatile
  4799  001DC4  B4D8               	btfsc	status,2,c
  4800                           
  4801                           ; BSR set to: 4
  4802                           ;usb_device.c: 1686: {
  4803                           ;usb_device.c: 1687: USBCtrlEPAllowDataStage();
  4804  001DC6  ECEC  F013         	call	_USBCtrlEPAllowDataStage	;wreg free
  4805                           
  4806                           ;usb_device.c: 1688: }
  4807                           ;usb_device.c: 1710: USBStatusStageEnabledFlag2 = 0;
  4808  001DCA  0E00               	movlw	0
  4809  001DCC  6E41               	movwf	_USBStatusStageEnabledFlag2,c	;volatile
  4810                           
  4811                           ;usb_device.c: 1711: USBStatusStageEnabledFlag1 = 0;
  4812  001DCE  0E00               	movlw	0
  4813  001DD0  6E40               	movwf	_USBStatusStageEnabledFlag1,c	;volatile
  4814                           
  4815                           ;usb_device.c: 1712: if(USBDeferStatusStagePacket == 0)
  4816  001DD2  503E               	movf	_USBDeferStatusStagePacket,w,c	;volatile
  4817  001DD4  A4D8               	btfss	status,2,c
  4818  001DD6  0012               	return	
  4819                           
  4820                           ;usb_device.c: 1713: {
  4821                           ;usb_device.c: 1714: USBCtrlEPAllowStatusStage();
  4822  001DD8  EC1D  F012         	call	_USBCtrlEPAllowStatusStage	;wreg free
  4823                           
  4824                           ;usb_device.c: 1715: }
  4825                           ;usb_device.c: 1716: }
  4826  001DDC  0012               	return	
  4827  001DDE                     i2l3327:
  4828                           
  4829                           ;usb_device.c: 1717: else
  4830                           ;usb_device.c: 1718: {
  4831                           ;usb_device.c: 1729: controlTransferState = 2;
  4832  001DDE  0E02               	movlw	2
  4833  001DE0  6E43               	movwf	_controlTransferState,c	;volatile
  4834                           
  4835                           ;usb_device.c: 1732: pBDTEntryEP0OutNext->CNT = 8;
  4836  001DE2  EE20 F001          	lfsr	2,1
  4837  001DE6  5035               	movf	_pBDTEntryEP0OutNext,w,c
  4838  001DE8  26D9               	addwf	fsr2l,f,c
  4839  001DEA  5036               	movf	_pBDTEntryEP0OutNext+1,w,c
  4840  001DEC  22DA               	addwfc	fsr2h,f,c
  4841  001DEE  0E08               	movlw	8
  4842  001DF0  6EDF               	movwf	indf2,c
  4843                           
  4844                           ;usb_device.c: 1733: pBDTEntryEP0OutNext->ADR = ((uint16_t)(&SetupPkt));
  4845  001DF2  EE20 F002          	lfsr	2,2
  4846  001DF6  5035               	movf	_pBDTEntryEP0OutNext,w,c
  4847  001DF8  26D9               	addwf	fsr2l,f,c
  4848  001DFA  5036               	movf	_pBDTEntryEP0OutNext+1,w,c
  4849  001DFC  22DA               	addwfc	fsr2h,f,c
  4850  001DFE  0E30               	movlw	48
  4851  001E00  6EDE               	movwf	postinc2,c
  4852  001E02  0E04               	movlw	4
  4853  001E04  6EDD               	movwf	postdec2,c
  4854                           
  4855                           ;usb_device.c: 1734: pBDTEntryEP0OutNext->STAT.Val = 0x04;
  4856  001E06  C035  FFD9         	movff	_pBDTEntryEP0OutNext,fsr2l
  4857  001E0A  C036  FFDA         	movff	_pBDTEntryEP0OutNext+1,fsr2h
  4858  001E0E  0E04               	movlw	4
  4859  001E10  6EDF               	movwf	indf2,c
  4860                           
  4861                           ;usb_device.c: 1735: pBDTEntryEP0OutNext->STAT.Val |= 0x80;
  4862  001E12  C035  FFD9         	movff	_pBDTEntryEP0OutNext,fsr2l
  4863  001E16  C036  FFDA         	movff	_pBDTEntryEP0OutNext+1,fsr2h
  4864  001E1A  0E00               	movlw	0
  4865  001E1C  8EDB               	bsf	plusw2,7,c
  4866                           
  4867                           ;usb_device.c: 1738: USBStatusStageEnabledFlag2 = 0;
  4868  001E1E  0E00               	movlw	0
  4869  001E20  6E41               	movwf	_USBStatusStageEnabledFlag2,c	;volatile
  4870                           
  4871                           ;usb_device.c: 1739: USBStatusStageEnabledFlag1 = 0;
  4872  001E22  0E00               	movlw	0
  4873  001E24  6E40               	movwf	_USBStatusStageEnabledFlag1,c	;volatile
  4874                           
  4875                           ;usb_device.c: 1740: if(USBDeferStatusStagePacket == 0)
  4876  001E26  503E               	movf	_USBDeferStatusStagePacket,w,c	;volatile
  4877  001E28  A4D8               	btfss	status,2,c
  4878  001E2A  0012               	return	
  4879                           
  4880                           ;usb_device.c: 1741: {
  4881                           ;usb_device.c: 1742: USBCtrlEPAllowStatusStage();
  4882  001E2C  EC1D  F012         	call	_USBCtrlEPAllowStatusStage	;wreg free
  4883  001E30  0012               	return	
  4884  001E32                     __end_of_USBCtrlEPServiceComplete:
  4885                           	opt stack 0
  4886                           pclatu	equ	0xFFB
  4887                           pclath	equ	0xFFA
  4888                           tblptru	equ	0xFF8
  4889                           tblptrh	equ	0xFF7
  4890                           tblptrl	equ	0xFF6
  4891                           tablat	equ	0xFF5
  4892                           prodh	equ	0xFF4
  4893                           prodl	equ	0xFF3
  4894                           intcon	equ	0xFF2
  4895                           postinc0	equ	0xFEE
  4896                           fsr0h	equ	0xFEA
  4897                           fsr0l	equ	0xFE9
  4898                           wreg	equ	0xFE8
  4899                           indf1	equ	0xFE7
  4900                           fsr1h	equ	0xFE2
  4901                           fsr1l	equ	0xFE1
  4902                           bsr	equ	0xFE0
  4903                           indf2	equ	0xFDF
  4904                           postinc2	equ	0xFDE
  4905                           postdec2	equ	0xFDD
  4906                           plusw2	equ	0xFDB
  4907                           fsr2h	equ	0xFDA
  4908                           fsr2l	equ	0xFD9
  4909                           status	equ	0xFD8
  4910                           
  4911 ;; *************** function _USBCtrlEPAllowDataStage *****************
  4912 ;; Defined at:
  4913 ;;		line 1488 in file "usb_device.c"
  4914 ;; Parameters:    Size  Location     Type
  4915 ;;		None
  4916 ;; Auto vars:     Size  Location     Type
  4917 ;;		None
  4918 ;; Return value:  Size  Location     Type
  4919 ;;                  1    wreg      void 
  4920 ;; Registers used:
  4921 ;;		wreg, fsr1l, fsr1h, fsr2l, fsr2h, status,2, status,0, tblptrl, tblptrh, tblptru, cstack
  4922 ;; Tracked objects:
  4923 ;;		On entry : 0/0
  4924 ;;		On exit  : 0/0
  4925 ;;		Unchanged: 0/0
  4926 ;; Data sizes:     COMRAM   BANK0   BANK1   BANK2   BANK3   BANK4   BANK5   BANK6   BANK7
  4927 ;;      Params:         0       0       0       0       0       0       0       0       0
  4928 ;;      Locals:         0       0       0       0       0       0       0       0       0
  4929 ;;      Temps:          0       0       0       0       0       0       0       0       0
  4930 ;;      Totals:         0       0       0       0       0       0       0       0       0
  4931 ;;Total ram usage:        0 bytes
  4932 ;; Hardware stack levels used:    1
  4933 ;; Hardware stack levels required when called:    1
  4934 ;; This function calls:
  4935 ;;		_USBCtrlTrfTxService
  4936 ;; This function is called by:
  4937 ;;		_USBCtrlEPServiceComplete
  4938 ;; This function uses a non-reentrant model
  4939 ;;
  4940                           
  4941                           	psect	text23
  4942  0027D8                     __ptext23:
  4943                           	opt stack 0
  4944  0027D8                     _USBCtrlEPAllowDataStage:
  4945                           	opt stack 20
  4946                           
  4947                           ;usb_device.c: 1490: USBDeferINDataStagePackets = 0;
  4948                           
  4949                           ;incstack = 0
  4950  0027D8  0E00               	movlw	0
  4951  0027DA  6E3C               	movwf	_USBDeferINDataStagePackets,c	;volatile
  4952                           
  4953                           ;usb_device.c: 1491: USBDeferOUTDataStagePackets = 0;
  4954  0027DC  0E00               	movlw	0
  4955  0027DE  6E3D               	movwf	_USBDeferOUTDataStagePackets,c	;volatile
  4956                           
  4957                           ;usb_device.c: 1493: if(controlTransferState == 2)
  4958  0027E0  0E02               	movlw	2
  4959  0027E2  1843               	xorwf	_controlTransferState,w,c	;volatile
  4960  0027E4  A4D8               	btfss	status,2,c
  4961  0027E6  D01F               	goto	i2l3101
  4962                           
  4963                           ;usb_device.c: 1494: {
  4964                           ;usb_device.c: 1496: pBDTEntryEP0OutNext->CNT = 8;
  4965  0027E8  EE20 F001          	lfsr	2,1
  4966  0027EC  5035               	movf	_pBDTEntryEP0OutNext,w,c
  4967  0027EE  26D9               	addwf	fsr2l,f,c
  4968  0027F0  5036               	movf	_pBDTEntryEP0OutNext+1,w,c
  4969  0027F2  22DA               	addwfc	fsr2h,f,c
  4970  0027F4  0E08               	movlw	8
  4971  0027F6  6EDF               	movwf	indf2,c
  4972                           
  4973                           ;usb_device.c: 1497: pBDTEntryEP0OutNext->ADR = ((uint16_t)(&CtrlTrfData));
  4974  0027F8  EE20 F002          	lfsr	2,2
  4975  0027FC  5035               	movf	_pBDTEntryEP0OutNext,w,c
  4976  0027FE  26D9               	addwf	fsr2l,f,c
  4977  002800  5036               	movf	_pBDTEntryEP0OutNext+1,w,c
  4978  002802  22DA               	addwfc	fsr2h,f,c
  4979  002804  0E38               	movlw	56
  4980  002806  6EDE               	movwf	postinc2,c
  4981  002808  0E04               	movlw	4
  4982  00280A  6EDD               	movwf	postdec2,c
  4983                           
  4984                           ;usb_device.c: 1498: pBDTEntryEP0OutNext->STAT.Val = 0x40|(0x08 & 0x08);
  4985  00280C  C035  FFD9         	movff	_pBDTEntryEP0OutNext,fsr2l
  4986  002810  C036  FFDA         	movff	_pBDTEntryEP0OutNext+1,fsr2h
  4987  002814  0E48               	movlw	72
  4988  002816  6EDF               	movwf	indf2,c
  4989                           
  4990                           ;usb_device.c: 1499: pBDTEntryEP0OutNext->STAT.Val |= 0x80;
  4991  002818  C035  FFD9         	movff	_pBDTEntryEP0OutNext,fsr2l
  4992  00281C  C036  FFDA         	movff	_pBDTEntryEP0OutNext+1,fsr2h
  4993  002820  0E00               	movlw	0
  4994  002822  8EDB               	bsf	plusw2,7,c
  4995                           
  4996                           ;usb_device.c: 1500: }
  4997  002824  0012               	return	
  4998  002826                     i2l3101:
  4999                           
  5000                           ;usb_device.c: 1501: else
  5001                           ;usb_device.c: 1502: {
  5002                           ;usb_device.c: 1505: if(SetupPkt.wLength < inPipes[0].wCount.Val)
  5003  002826  0100               	movlb	0	; () banked
  5004  002828  5176               	movf	(_inPipes+4)& (0+255),w,b	;volatile
  5005  00282A  0104               	movlb	4	; () banked
  5006  00282C  5D36               	subwf	54,w,b	;volatile
  5007  00282E  0100               	movlb	0	; () banked
  5008  002830  5177               	movf	(_inPipes+5)& (0+255),w,b	;volatile
  5009  002832  0104               	movlb	4	; () banked
  5010  002834  5937               	subwfb	55,w,b	;volatile
  5011  002836  B0D8               	btfsc	status,0,c
  5012  002838  D004               	goto	i2l3105
  5013                           
  5014                           ; BSR set to: 4
  5015                           ;usb_device.c: 1506: {
  5016                           ;usb_device.c: 1507: inPipes[0].wCount.Val = SetupPkt.wLength;
  5017  00283A  C436 F076          	movff	1078,_inPipes+4	;volatile
  5018  00283E  C437 F077          	movff	1079,_inPipes+5	;volatile
  5019  002842                     i2l3105:
  5020                           
  5021                           ; BSR set to: 4
  5022                           ;usb_device.c: 1508: }
  5023                           ;usb_device.c: 1509: USBCtrlTrfTxService();
  5024  002842  ECE4  F010         	call	_USBCtrlTrfTxService	;wreg free
  5025                           
  5026                           ;usb_device.c: 1514: pBDTEntryIn[0]->ADR = ((uint16_t)(&CtrlTrfData));
  5027  002846  0100               	movlb	0	; () banked
  5028  002848  EE20 F002          	lfsr	2,2
  5029  00284C  5178               	movf	_pBDTEntryIn& (0+255),w,b
  5030  00284E  26D9               	addwf	fsr2l,f,c
  5031  002850  5179               	movf	(_pBDTEntryIn+1)& (0+255),w,b
  5032  002852  22DA               	addwfc	fsr2h,f,c
  5033  002854  0E38               	movlw	56
  5034  002856  6EDE               	movwf	postinc2,c
  5035  002858  0E04               	movlw	4
  5036  00285A  6EDD               	movwf	postdec2,c
  5037                           
  5038                           ; BSR set to: 0
  5039                           ;usb_device.c: 1515: pBDTEntryIn[0]->STAT.Val = 0x40|(0x08 & 0x08);
  5040  00285C  C078  FFD9         	movff	_pBDTEntryIn,fsr2l
  5041  002860  C079  FFDA         	movff	_pBDTEntryIn+1,fsr2h
  5042  002864  0E48               	movlw	72
  5043  002866  6EDF               	movwf	indf2,c
  5044                           
  5045                           ; BSR set to: 0
  5046                           ;usb_device.c: 1516: pBDTEntryIn[0]->STAT.Val |= 0x80;
  5047  002868  C078  FFD9         	movff	_pBDTEntryIn,fsr2l
  5048  00286C  C079  FFDA         	movff	_pBDTEntryIn+1,fsr2h
  5049  002870  0E00               	movlw	0
  5050  002872  8EDB               	bsf	plusw2,7,c
  5051  002874  0012               	return	
  5052  002876                     __end_of_USBCtrlEPAllowDataStage:
  5053                           	opt stack 0
  5054                           pclatu	equ	0xFFB
  5055                           pclath	equ	0xFFA
  5056                           tblptru	equ	0xFF8
  5057                           tblptrh	equ	0xFF7
  5058                           tblptrl	equ	0xFF6
  5059                           tablat	equ	0xFF5
  5060                           prodh	equ	0xFF4
  5061                           prodl	equ	0xFF3
  5062                           intcon	equ	0xFF2
  5063                           postinc0	equ	0xFEE
  5064                           fsr0h	equ	0xFEA
  5065                           fsr0l	equ	0xFE9
  5066                           wreg	equ	0xFE8
  5067                           indf1	equ	0xFE7
  5068                           fsr1h	equ	0xFE2
  5069                           fsr1l	equ	0xFE1
  5070                           bsr	equ	0xFE0
  5071                           indf2	equ	0xFDF
  5072                           postinc2	equ	0xFDE
  5073                           postdec2	equ	0xFDD
  5074                           plusw2	equ	0xFDB
  5075                           fsr2h	equ	0xFDA
  5076                           fsr2l	equ	0xFD9
  5077                           status	equ	0xFD8
  5078                           
  5079 ;; *************** function _USBCheckStdRequest *****************
  5080 ;; Defined at:
  5081 ;;		line 2689 in file "usb_device.c"
  5082 ;; Parameters:    Size  Location     Type
  5083 ;;		None
  5084 ;; Auto vars:     Size  Location     Type
  5085 ;;		None
  5086 ;; Return value:  Size  Location     Type
  5087 ;;                  1    wreg      void 
  5088 ;; Registers used:
  5089 ;;		wreg, fsr1l, fsr1h, fsr2l, fsr2h, status,2, status,0, tblptrl, tblptrh, tblptru, prodl, prodh, cstack
  5090 ;; Tracked objects:
  5091 ;;		On entry : 0/0
  5092 ;;		On exit  : 0/0
  5093 ;;		Unchanged: 0/0
  5094 ;; Data sizes:     COMRAM   BANK0   BANK1   BANK2   BANK3   BANK4   BANK5   BANK6   BANK7
  5095 ;;      Params:         0       0       0       0       0       0       0       0       0
  5096 ;;      Locals:         0       0       0       0       0       0       0       0       0
  5097 ;;      Temps:          0       0       0       0       0       0       0       0       0
  5098 ;;      Totals:         0       0       0       0       0       0       0       0       0
  5099 ;;Total ram usage:        0 bytes
  5100 ;; Hardware stack levels used:    1
  5101 ;; Hardware stack levels required when called:    6
  5102 ;; This function calls:
  5103 ;;		_USBStdFeatureReqHandler
  5104 ;;		_USBStdGetDscHandler
  5105 ;;		_USBStdGetStatusHandler
  5106 ;;		_USBStdSetCfgHandler
  5107 ;;		_USER_USB_CALLBACK_EVENT_HANDLER
  5108 ;; This function is called by:
  5109 ;;		_USBCtrlTrfSetupHandler
  5110 ;; This function uses a non-reentrant model
  5111 ;;
  5112                           
  5113                           	psect	text24
  5114  001E32                     __ptext24:
  5115                           	opt stack 0
  5116  001E32                     _USBCheckStdRequest:
  5117                           	opt stack 16
  5118                           
  5119                           ;usb_device.c: 2691: if(SetupPkt.RequestType != (0x00>>5)) return;
  5120                           
  5121                           ;incstack = 0
  5122  001E32  0104               	movlb	4	; () banked
  5123  001E34  3930               	swapf	48,w,b	;volatile
  5124  001E36  32E8               	rrcf	wreg,f,c
  5125  001E38  0B03               	andlw	3
  5126  001E3A  0900               	iorlw	0
  5127  001E3C  A4D8               	btfss	status,2,c
  5128  001E3E  0012               	return	
  5129  001E40  D04F               	goto	i2l3425
  5130  001E42                     i2l575:
  5131                           
  5132                           ; BSR set to: 4
  5133                           ;usb_device.c: 2696: inPipes[0].info.bits.busy = 1;
  5134  001E42  0100               	movlb	0	; () banked
  5135  001E44  8F75               	bsf	(_inPipes+3)& (0+255),7,b	;volatile
  5136                           
  5137                           ; BSR set to: 0
  5138                           ;usb_device.c: 2697: USBDeviceState = ADR_PENDING_STATE;
  5139  001E46  0E08               	movlw	8
  5140  001E48  6E3F               	movwf	_USBDeviceState,c	;volatile
  5141                           
  5142                           ;usb_device.c: 2699: break;
  5143  001E4A  0012               	return	
  5144  001E4C                     i2l3395:
  5145                           
  5146                           ;usb_device.c: 2701: USBStdGetDscHandler();
  5147  001E4C  EC44  F00C         	call	_USBStdGetDscHandler	;wreg free
  5148                           
  5149                           ;usb_device.c: 2702: break;
  5150  001E50  0012               	return	
  5151  001E52                     i2l3397:
  5152                           
  5153                           ;usb_device.c: 2704: USBStdSetCfgHandler();
  5154  001E52  EC07  F010         	call	_USBStdSetCfgHandler	;wreg free
  5155                           
  5156                           ;usb_device.c: 2705: break;
  5157  001E56  0012               	return	
  5158  001E58                     i2l3399:
  5159                           
  5160                           ;usb_device.c: 2707: inPipes[0].pSrc.bRam = (uint8_t*)&USBActiveConfiguration;
  5161  001E58  0E52               	movlw	low _USBActiveConfiguration
  5162  001E5A  0100               	movlb	0	; () banked
  5163  001E5C  6F72               	movwf	_inPipes& (0+255),b	;volatile
  5164  001E5E  0E00               	movlw	high _USBActiveConfiguration
  5165  001E60  0100               	movlb	0	; () banked
  5166  001E62  6F73               	movwf	(_inPipes+1)& (0+255),b	;volatile
  5167                           
  5168                           ; BSR set to: 0
  5169                           ;usb_device.c: 2708: inPipes[0].info.bits.ctrl_trf_mem = 0x01;
  5170  001E64  0100               	movlb	0	; () banked
  5171  001E66  8175               	bsf	(_inPipes+3)& (0+255),0,b	;volatile
  5172                           
  5173                           ; BSR set to: 0
  5174                           ;usb_device.c: 2709: inPipes[0].wCount.v[0] = 1;
  5175  001E68  0E01               	movlw	1
  5176  001E6A  0100               	movlb	0	; () banked
  5177  001E6C  6F76               	movwf	(_inPipes+4)& (0+255),b	;volatile
  5178                           
  5179                           ; BSR set to: 0
  5180                           ;usb_device.c: 2710: inPipes[0].info.bits.busy = 1;
  5181  001E6E  0100               	movlb	0	; () banked
  5182  001E70  8F75               	bsf	(_inPipes+3)& (0+255),7,b	;volatile
  5183                           
  5184                           ;usb_device.c: 2711: break;
  5185  001E72  0012               	return	
  5186  001E74                     i2l3407:
  5187                           
  5188                           ;usb_device.c: 2713: USBStdGetStatusHandler();
  5189  001E74  ECE0  F012         	call	_USBStdGetStatusHandler	;wreg free
  5190                           
  5191                           ;usb_device.c: 2714: break;
  5192  001E78  0012               	return	
  5193  001E7A                     i2l3409:
  5194                           
  5195                           ;usb_device.c: 2716: case 3:
  5196                           ;usb_device.c: 2717: USBStdFeatureReqHandler();
  5197  001E7A  ECE6  F008         	call	_USBStdFeatureReqHandler	;wreg free
  5198                           
  5199                           ;usb_device.c: 2718: break;
  5200  001E7E  0012               	return	
  5201  001E80                     i2l3411:
  5202                           
  5203                           ;usb_device.c: 2720: inPipes[0].pSrc.bRam = (uint8_t*)&USBAlternateInterface[SetupPkt.bI
      +                          ntfID];
  5204  001E80  0104               	movlb	4	; () banked
  5205  001E82  5134               	movf	52,w,b	;volatile
  5206  001E84  0D01               	mullw	1
  5207  001E86  0E50               	movlw	low _USBAlternateInterface
  5208  001E88  24F3               	addwf	prodl,w,c
  5209  001E8A  0100               	movlb	0	; () banked
  5210  001E8C  6F72               	movwf	_inPipes& (0+255),b	;volatile
  5211  001E8E  0E00               	movlw	high _USBAlternateInterface
  5212  001E90  20F4               	addwfc	prodh,w,c
  5213  001E92  0100               	movlb	0	; () banked
  5214  001E94  6F73               	movwf	(_inPipes+1)& (0+255),b	;volatile
  5215                           
  5216                           ; BSR set to: 0
  5217                           ;usb_device.c: 2721: inPipes[0].info.bits.ctrl_trf_mem = 0x01;
  5218  001E96  0100               	movlb	0	; () banked
  5219  001E98  8175               	bsf	(_inPipes+3)& (0+255),0,b	;volatile
  5220                           
  5221                           ; BSR set to: 0
  5222                           ;usb_device.c: 2722: inPipes[0].wCount.v[0] = 1;
  5223  001E9A  0E01               	movlw	1
  5224  001E9C  0100               	movlb	0	; () banked
  5225  001E9E  6F76               	movwf	(_inPipes+4)& (0+255),b	;volatile
  5226                           
  5227                           ; BSR set to: 0
  5228                           ;usb_device.c: 2723: inPipes[0].info.bits.busy = 1;
  5229  001EA0  0100               	movlb	0	; () banked
  5230  001EA2  8F75               	bsf	(_inPipes+3)& (0+255),7,b	;volatile
  5231                           
  5232                           ;usb_device.c: 2724: break;
  5233  001EA4  0012               	return	
  5234  001EA6                     i2l584:
  5235                           
  5236                           ; BSR set to: 4
  5237                           ;usb_device.c: 2726: inPipes[0].info.bits.busy = 1;
  5238  001EA6  0100               	movlb	0	; () banked
  5239  001EA8  8F75               	bsf	(_inPipes+3)& (0+255),7,b	;volatile
  5240                           
  5241                           ; BSR set to: 0
  5242                           ;usb_device.c: 2727: USBAlternateInterface[SetupPkt.bIntfID] = SetupPkt.bAltID;
  5243  001EAA  0104               	movlb	4	; () banked
  5244  001EAC  5134               	movf	52,w,b	;volatile
  5245  001EAE  0D01               	mullw	1
  5246  001EB0  0E50               	movlw	low _USBAlternateInterface
  5247  001EB2  24F3               	addwf	prodl,w,c
  5248  001EB4  6ED9               	movwf	fsr2l,c
  5249  001EB6  0E00               	movlw	high _USBAlternateInterface
  5250  001EB8  20F4               	addwfc	prodh,w,c
  5251  001EBA  6EDA               	movwf	fsr2h,c
  5252  001EBC  C432 FFDF          	movff	1074,indf2	;volatile
  5253                           
  5254                           ;usb_device.c: 2728: break;
  5255  001EC0  0012               	return	
  5256  001EC2                     i2l3421:
  5257                           
  5258                           ; BSR set to: 4
  5259                           ;usb_device.c: 2730: USER_USB_CALLBACK_EVENT_HANDLER(EVENT_SET_DESCRIPTOR,0,0);
  5260  001EC2  0E00               	movlw	0
  5261  001EC4  6E0E               	movwf	USER_USB_CALLBACK_EVENT_HANDLER@event+1,c
  5262  001EC6  0E02               	movlw	2
  5263  001EC8  6E0D               	movwf	USER_USB_CALLBACK_EVENT_HANDLER@event,c
  5264  001ECA  0E00               	movlw	0
  5265  001ECC  6E0F               	movwf	USER_USB_CALLBACK_EVENT_HANDLER@pdata,c
  5266  001ECE  0E00               	movlw	0
  5267  001ED0  6E10               	movwf	USER_USB_CALLBACK_EVENT_HANDLER@pdata+1,c
  5268  001ED2  0E00               	movlw	0
  5269  001ED4  6E12               	movwf	USER_USB_CALLBACK_EVENT_HANDLER@size+1,c
  5270  001ED6  0E00               	movlw	0
  5271  001ED8  6E11               	movwf	USER_USB_CALLBACK_EVENT_HANDLER@size,c
  5272  001EDA  EC0C  F015         	call	_USER_USB_CALLBACK_EVENT_HANDLER	;wreg free
  5273                           
  5274                           ;usb_device.c: 2735: }
  5275                           
  5276                           ;usb_device.c: 2734: break;
  5277                           
  5278                           ;usb_device.c: 2733: default:
  5279                           
  5280                           ;usb_device.c: 2732: case 12:
  5281                           
  5282                           ;usb_device.c: 2731: break;
  5283  001EDE  0012               	return	
  5284  001EE0                     i2l3425:
  5285  001EE0  0104               	movlb	4	; () banked
  5286  001EE2  5131               	movf	49,w,b	;volatile
  5287                           
  5288                           ; Switch size 1, requested type "space"
  5289                           ; Number of cases is 11, Range of values is 0 to 12
  5290                           ; switch strategies available:
  5291                           ; Name         Instructions Cycles
  5292                           ; simple_byte           34    18 (average)
  5293                           ;	Chosen strategy is simple_byte
  5294  001EE4  0A00               	xorlw	0	; case 0
  5295  001EE6  B4D8               	btfsc	status,2,c
  5296  001EE8  D7C5               	goto	i2l3407
  5297  001EEA  0A01               	xorlw	1	; case 1
  5298  001EEC  B4D8               	btfsc	status,2,c
  5299  001EEE  D7C5               	goto	i2l3409
  5300  001EF0  0A02               	xorlw	2	; case 3
  5301  001EF2  B4D8               	btfsc	status,2,c
  5302  001EF4  D7C2               	goto	i2l3409
  5303  001EF6  0A06               	xorlw	6	; case 5
  5304  001EF8  B4D8               	btfsc	status,2,c
  5305  001EFA  D7A3               	goto	i2l575
  5306  001EFC  0A03               	xorlw	3	; case 6
  5307  001EFE  B4D8               	btfsc	status,2,c
  5308  001F00  D7A5               	goto	i2l3395
  5309  001F02  0A01               	xorlw	1	; case 7
  5310  001F04  B4D8               	btfsc	status,2,c
  5311  001F06  D7DD               	goto	i2l3421
  5312  001F08  0A0F               	xorlw	15	; case 8
  5313  001F0A  B4D8               	btfsc	status,2,c
  5314  001F0C  D7A5               	goto	i2l3399
  5315  001F0E  0A01               	xorlw	1	; case 9
  5316  001F10  B4D8               	btfsc	status,2,c
  5317  001F12  D79F               	goto	i2l3397
  5318  001F14  0A03               	xorlw	3	; case 10
  5319  001F16  B4D8               	btfsc	status,2,c
  5320  001F18  D7B3               	goto	i2l3411
  5321  001F1A  0A01               	xorlw	1	; case 11
  5322  001F1C  B4D8               	btfsc	status,2,c
  5323  001F1E  D7C3               	goto	i2l584
  5324  001F20  0A07               	xorlw	7	; case 12
  5325  001F22  0012               	return	
  5326  001F24                     __end_of_USBCheckStdRequest:
  5327                           	opt stack 0
  5328                           pclatu	equ	0xFFB
  5329                           pclath	equ	0xFFA
  5330                           tblptru	equ	0xFF8
  5331                           tblptrh	equ	0xFF7
  5332                           tblptrl	equ	0xFF6
  5333                           tablat	equ	0xFF5
  5334                           prodh	equ	0xFF4
  5335                           prodl	equ	0xFF3
  5336                           intcon	equ	0xFF2
  5337                           postinc0	equ	0xFEE
  5338                           fsr0h	equ	0xFEA
  5339                           fsr0l	equ	0xFE9
  5340                           wreg	equ	0xFE8
  5341                           indf1	equ	0xFE7
  5342                           fsr1h	equ	0xFE2
  5343                           fsr1l	equ	0xFE1
  5344                           bsr	equ	0xFE0
  5345                           indf2	equ	0xFDF
  5346                           postinc2	equ	0xFDE
  5347                           postdec2	equ	0xFDD
  5348                           plusw2	equ	0xFDB
  5349                           fsr2h	equ	0xFDA
  5350                           fsr2l	equ	0xFD9
  5351                           status	equ	0xFD8
  5352                           
  5353 ;; *************** function _USBStdSetCfgHandler *****************
  5354 ;; Defined at:
  5355 ;;		line 1968 in file "usb_device.c"
  5356 ;; Parameters:    Size  Location     Type
  5357 ;;		None
  5358 ;; Auto vars:     Size  Location     Type
  5359 ;;  i               1   20[COMRAM] unsigned char 
  5360 ;; Return value:  Size  Location     Type
  5361 ;;                  1    wreg      void 
  5362 ;; Registers used:
  5363 ;;		wreg, fsr2l, fsr2h, status,2, status,0, prodl, prodh, cstack
  5364 ;; Tracked objects:
  5365 ;;		On entry : 0/0
  5366 ;;		On exit  : 0/0
  5367 ;;		Unchanged: 0/0
  5368 ;; Data sizes:     COMRAM   BANK0   BANK1   BANK2   BANK3   BANK4   BANK5   BANK6   BANK7
  5369 ;;      Params:         0       0       0       0       0       0       0       0       0
  5370 ;;      Locals:         1       0       0       0       0       0       0       0       0
  5371 ;;      Temps:          0       0       0       0       0       0       0       0       0
  5372 ;;      Totals:         1       0       0       0       0       0       0       0       0
  5373 ;;Total ram usage:        1 bytes
  5374 ;; Hardware stack levels used:    1
  5375 ;; Hardware stack levels required when called:    5
  5376 ;; This function calls:
  5377 ;;		_USER_USB_CALLBACK_EVENT_HANDLER
  5378 ;;		i2_memset
  5379 ;; This function is called by:
  5380 ;;		_USBCheckStdRequest
  5381 ;; This function uses a non-reentrant model
  5382 ;;
  5383                           
  5384                           	psect	text25
  5385  00200E                     __ptext25:
  5386                           	opt stack 0
  5387  00200E                     _USBStdSetCfgHandler:
  5388                           	opt stack 16
  5389                           
  5390                           ;usb_device.c: 1970: uint8_t i;
  5391                           ;usb_device.c: 1973: inPipes[0].info.bits.busy = 1;
  5392                           
  5393                           ;incstack = 0
  5394  00200E  0100               	movlb	0	; () banked
  5395  002010  8F75               	bsf	(_inPipes+3)& (0+255),7,b	;volatile
  5396                           
  5397                           ; BSR set to: 0
  5398                           ;usb_device.c: 1976: memset((void*)&UEP1,0x00,(2));;
  5399  002012  0E71               	movlw	113
  5400  002014  6E01               	movwf	i2memset@p1,c
  5401  002016  0E0F               	movlw	15
  5402  002018  6E02               	movwf	i2memset@p1+1,c
  5403  00201A  0E00               	movlw	0
  5404  00201C  6E04               	movwf	i2memset@c+1,c
  5405  00201E  0E00               	movlw	0
  5406  002020  6E03               	movwf	i2memset@c,c
  5407  002022  0E00               	movlw	0
  5408  002024  6E06               	movwf	i2memset@n+1,c
  5409  002026  0E02               	movlw	2
  5410  002028  6E05               	movwf	i2memset@n,c
  5411  00202A  EC7D  F016         	call	i2_memset	;wreg free
  5412                           
  5413                           ;usb_device.c: 1979: memset((void*)&BDT[0], 0x00, sizeof(BDT));
  5414  00202E  0E00               	movlw	0
  5415  002030  6E01               	movwf	i2memset@p1,c
  5416  002032  0E04               	movlw	4
  5417  002034  6E02               	movwf	i2memset@p1+1,c
  5418  002036  0E00               	movlw	0
  5419  002038  6E04               	movwf	i2memset@c+1,c
  5420  00203A  0E00               	movlw	0
  5421  00203C  6E03               	movwf	i2memset@c,c
  5422  00203E  0E00               	movlw	0
  5423  002040  6E06               	movwf	i2memset@n+1,c
  5424  002042  0E30               	movlw	48
  5425  002044  6E05               	movwf	i2memset@n,c
  5426  002046  EC7D  F016         	call	i2_memset	;wreg free
  5427                           
  5428                           ;usb_device.c: 1982: UCONbits.PPBRST = 1;
  5429  00204A  8C6D               	bsf	3949,6,c	;volatile
  5430                           
  5431                           ;usb_device.c: 1987: for(i = 0; i < (uint8_t)(2+1u); i++)
  5432  00204C  0E00               	movlw	0
  5433  00204E  6E15               	movwf	USBStdSetCfgHandler@i,c
  5434  002050                     i2l3121:
  5435  002050  0E02               	movlw	2
  5436  002052  6415               	cpfsgt	USBStdSetCfgHandler@i,c
  5437  002054  D001               	goto	i2l3125
  5438  002056  D016               	goto	i2l3131
  5439  002058                     i2l3125:
  5440                           
  5441                           ;usb_device.c: 1988: {
  5442                           ;usb_device.c: 1989: ep_data_in[i].Val = 0u;
  5443  002058  5015               	movf	USBStdSetCfgHandler@i,w,c
  5444  00205A  0D01               	mullw	1
  5445  00205C  0E84               	movlw	low _ep_data_in
  5446  00205E  24F3               	addwf	prodl,w,c
  5447  002060  6ED9               	movwf	fsr2l,c
  5448  002062  0E00               	movlw	high _ep_data_in
  5449  002064  20F4               	addwfc	prodh,w,c
  5450  002066  6EDA               	movwf	fsr2h,c
  5451  002068  0E00               	movlw	0
  5452  00206A  6EDF               	movwf	indf2,c
  5453                           
  5454                           ;usb_device.c: 1990: ep_data_out[i].Val = 0u;
  5455  00206C  5015               	movf	USBStdSetCfgHandler@i,w,c
  5456  00206E  0D01               	mullw	1
  5457  002070  0E87               	movlw	low _ep_data_out
  5458  002072  24F3               	addwf	prodl,w,c
  5459  002074  6ED9               	movwf	fsr2l,c
  5460  002076  0E00               	movlw	high _ep_data_out
  5461  002078  20F4               	addwfc	prodh,w,c
  5462  00207A  6EDA               	movwf	fsr2h,c
  5463  00207C  0E00               	movlw	0
  5464  00207E  6EDF               	movwf	indf2,c
  5465  002080  2A15               	incf	USBStdSetCfgHandler@i,f,c
  5466  002082  D7E6               	goto	i2l3121
  5467  002084                     i2l3131:
  5468                           
  5469                           ;usb_device.c: 1991: }
  5470                           ;usb_device.c: 1994: memset((void*)&USBAlternateInterface,0x00,2);
  5471  002084  0E50               	movlw	low _USBAlternateInterface
  5472  002086  6E01               	movwf	i2memset@p1,c
  5473  002088  0E00               	movlw	high _USBAlternateInterface
  5474  00208A  6E02               	movwf	i2memset@p1+1,c
  5475  00208C  0E00               	movlw	0
  5476  00208E  6E04               	movwf	i2memset@c+1,c
  5477  002090  0E00               	movlw	0
  5478  002092  6E03               	movwf	i2memset@c,c
  5479  002094  0E00               	movlw	0
  5480  002096  6E06               	movwf	i2memset@n+1,c
  5481  002098  0E02               	movlw	2
  5482  00209A  6E05               	movwf	i2memset@n,c
  5483  00209C  EC7D  F016         	call	i2_memset	;wreg free
  5484                           
  5485                           ;usb_device.c: 1997: UCONbits.PPBRST = 0;
  5486  0020A0  9C6D               	bcf	3949,6,c	;volatile
  5487                           
  5488                           ;usb_device.c: 1999: pBDTEntryIn[0] = (volatile BDT_ENTRY*)&BDT[2];
  5489  0020A2  0E08               	movlw	8
  5490  0020A4  0100               	movlb	0	; () banked
  5491  0020A6  6F78               	movwf	_pBDTEntryIn& (0+255),b
  5492  0020A8  0E04               	movlw	4
  5493  0020AA  0100               	movlb	0	; () banked
  5494  0020AC  6F79               	movwf	(_pBDTEntryIn+1)& (0+255),b
  5495                           
  5496                           ; BSR set to: 0
  5497                           ;usb_device.c: 2002: pBDTEntryEP0OutCurrent = (volatile BDT_ENTRY*)&BDT[0];
  5498  0020AE  0E00               	movlw	0
  5499  0020B0  6E33               	movwf	_pBDTEntryEP0OutCurrent,c
  5500  0020B2  0E04               	movlw	4
  5501  0020B4  6E34               	movwf	_pBDTEntryEP0OutCurrent+1,c
  5502                           
  5503                           ; BSR set to: 0
  5504                           ;usb_device.c: 2003: pBDTEntryEP0OutNext = pBDTEntryEP0OutCurrent;
  5505  0020B6  C033  F035         	movff	_pBDTEntryEP0OutCurrent,_pBDTEntryEP0OutNext
  5506  0020BA  C034  F036         	movff	_pBDTEntryEP0OutCurrent+1,_pBDTEntryEP0OutNext+1
  5507                           
  5508                           ; BSR set to: 0
  5509                           ;usb_device.c: 2006: USBActiveConfiguration = SetupPkt.bConfigurationValue;
  5510  0020BE  C432 F052          	movff	1074,_USBActiveConfiguration	;volatile
  5511                           
  5512                           ; BSR set to: 0
  5513                           ;usb_device.c: 2009: if(USBActiveConfiguration == 0)
  5514  0020C2  5052               	movf	_USBActiveConfiguration,w,c	;volatile
  5515  0020C4  A4D8               	btfss	status,2,c
  5516  0020C6  D003               	goto	i2l3147
  5517                           
  5518                           ; BSR set to: 0
  5519                           ;usb_device.c: 2010: {
  5520                           ;usb_device.c: 2012: USBDeviceState = ADDRESS_STATE;
  5521  0020C8  0E10               	movlw	16
  5522  0020CA  6E3F               	movwf	_USBDeviceState,c	;volatile
  5523                           
  5524                           ;usb_device.c: 2013: }
  5525  0020CC  0012               	return	
  5526  0020CE                     i2l3147:
  5527                           
  5528                           ; BSR set to: 0
  5529                           ;usb_device.c: 2014: else
  5530                           ;usb_device.c: 2015: {
  5531                           ;usb_device.c: 2017: USER_USB_CALLBACK_EVENT_HANDLER(EVENT_CONFIGURED,(void*)&USBActiveC
      +                          onfiguration,1);
  5532  0020CE  0E00               	movlw	0
  5533  0020D0  6E0E               	movwf	USER_USB_CALLBACK_EVENT_HANDLER@event+1,c
  5534  0020D2  0E01               	movlw	1
  5535  0020D4  6E0D               	movwf	USER_USB_CALLBACK_EVENT_HANDLER@event,c
  5536  0020D6  0E52               	movlw	low _USBActiveConfiguration
  5537  0020D8  6E0F               	movwf	USER_USB_CALLBACK_EVENT_HANDLER@pdata,c
  5538  0020DA  0E00               	movlw	high _USBActiveConfiguration
  5539  0020DC  6E10               	movwf	USER_USB_CALLBACK_EVENT_HANDLER@pdata+1,c
  5540  0020DE  0E00               	movlw	0
  5541  0020E0  6E12               	movwf	USER_USB_CALLBACK_EVENT_HANDLER@size+1,c
  5542  0020E2  0E01               	movlw	1
  5543  0020E4  6E11               	movwf	USER_USB_CALLBACK_EVENT_HANDLER@size,c
  5544  0020E6  EC0C  F015         	call	_USER_USB_CALLBACK_EVENT_HANDLER	;wreg free
  5545                           
  5546                           ;usb_device.c: 2022: USBDeviceState = CONFIGURED_STATE;
  5547  0020EA  0E20               	movlw	32
  5548  0020EC  6E3F               	movwf	_USBDeviceState,c	;volatile
  5549  0020EE  0012               	return	
  5550  0020F0                     __end_of_USBStdSetCfgHandler:
  5551                           	opt stack 0
  5552                           pclatu	equ	0xFFB
  5553                           pclath	equ	0xFFA
  5554                           tblptru	equ	0xFF8
  5555                           tblptrh	equ	0xFF7
  5556                           tblptrl	equ	0xFF6
  5557                           tablat	equ	0xFF5
  5558                           prodh	equ	0xFF4
  5559                           prodl	equ	0xFF3
  5560                           intcon	equ	0xFF2
  5561                           postinc0	equ	0xFEE
  5562                           fsr0h	equ	0xFEA
  5563                           fsr0l	equ	0xFE9
  5564                           wreg	equ	0xFE8
  5565                           indf1	equ	0xFE7
  5566                           fsr1h	equ	0xFE2
  5567                           fsr1l	equ	0xFE1
  5568                           bsr	equ	0xFE0
  5569                           indf2	equ	0xFDF
  5570                           postinc2	equ	0xFDE
  5571                           postdec2	equ	0xFDD
  5572                           plusw2	equ	0xFDB
  5573                           fsr2h	equ	0xFDA
  5574                           fsr2l	equ	0xFD9
  5575                           status	equ	0xFD8
  5576                           
  5577 ;; *************** function i2_memset *****************
  5578 ;; Defined at:
  5579 ;;		line 8 in file "C:\Program Files (x86)\Microchip\xc8\v1.36\sources\common\memset.c"
  5580 ;; Parameters:    Size  Location     Type
  5581 ;;  p1              2    0[COMRAM] PTR void 
  5582 ;;		 -> USBAlternateInterface(2), BDT(48), UEP1(1), 
  5583 ;;  c               2    2[COMRAM] int 
  5584 ;;  n               2    4[COMRAM] unsigned int 
  5585 ;; Auto vars:     Size  Location     Type
  5586 ;;  memset          2    6[COMRAM] PTR unsigned char 
  5587 ;;		 -> USBAlternateInterface(2), BDT(48), UEP1(1), 
  5588 ;; Return value:  Size  Location     Type
  5589 ;;                  2    0[COMRAM] PTR void 
  5590 ;; Registers used:
  5591 ;;		wreg, fsr2l, fsr2h, status,2, status,0
  5592 ;; Tracked objects:
  5593 ;;		On entry : 0/0
  5594 ;;		On exit  : 0/0
  5595 ;;		Unchanged: 0/0
  5596 ;; Data sizes:     COMRAM   BANK0   BANK1   BANK2   BANK3   BANK4   BANK5   BANK6   BANK7
  5597 ;;      Params:         6       0       0       0       0       0       0       0       0
  5598 ;;      Locals:         2       0       0       0       0       0       0       0       0
  5599 ;;      Temps:          0       0       0       0       0       0       0       0       0
  5600 ;;      Totals:         8       0       0       0       0       0       0       0       0
  5601 ;;Total ram usage:        8 bytes
  5602 ;; Hardware stack levels used:    1
  5603 ;; This function calls:
  5604 ;;		Nothing
  5605 ;; This function is called by:
  5606 ;;		_USBStdSetCfgHandler
  5607 ;;		i2_USBDeviceInit
  5608 ;; This function uses a non-reentrant model
  5609 ;;
  5610                           
  5611                           	psect	text26
  5612  002CFA                     __ptext26:
  5613                           	opt stack 0
  5614  002CFA                     i2_memset:
  5615                           	opt stack 23
  5616                           
  5617                           ;incstack = 0
  5618  002CFA  C001  F007         	movff	i2memset@p1,i2memset@p
  5619  002CFE  C002  F008         	movff	i2memset@p1+1,i2memset@p+1
  5620  002D02  D008               	goto	i2l3055
  5621  002D04                     i2l3051:
  5622  002D04  C007  FFD9         	movff	i2memset@p,fsr2l
  5623  002D08  C008  FFDA         	movff	i2memset@p+1,fsr2h
  5624  002D0C  C003  FFDF         	movff	i2memset@c,indf2
  5625  002D10  4A07               	infsnz	i2memset@p,f,c
  5626  002D12  2A08               	incf	i2memset@p+1,f,c
  5627  002D14                     i2l3055:
  5628  002D14  0605               	decf	i2memset@n,f,c
  5629  002D16  A0D8               	btfss	status,0,c
  5630  002D18  0606               	decf	i2memset@n+1,f,c
  5631  002D1A  2805               	incf	i2memset@n,w,c
  5632  002D1C  E1F3               	bnz	i2l3051
  5633  002D1E  2806               	incf	i2memset@n+1,w,c
  5634  002D20  B4D8               	btfsc	status,2,c
  5635  002D22  0012               	return	
  5636  002D24  D7EF               	goto	i2l3051
  5637  002D26                     __end_ofi2_memset:
  5638                           	opt stack 0
  5639                           pclatu	equ	0xFFB
  5640                           pclath	equ	0xFFA
  5641                           tblptru	equ	0xFF8
  5642                           tblptrh	equ	0xFF7
  5643                           tblptrl	equ	0xFF6
  5644                           tablat	equ	0xFF5
  5645                           prodh	equ	0xFF4
  5646                           prodl	equ	0xFF3
  5647                           intcon	equ	0xFF2
  5648                           postinc0	equ	0xFEE
  5649                           fsr0h	equ	0xFEA
  5650                           fsr0l	equ	0xFE9
  5651                           wreg	equ	0xFE8
  5652                           indf1	equ	0xFE7
  5653                           fsr1h	equ	0xFE2
  5654                           fsr1l	equ	0xFE1
  5655                           bsr	equ	0xFE0
  5656                           indf2	equ	0xFDF
  5657                           postinc2	equ	0xFDE
  5658                           postdec2	equ	0xFDD
  5659                           plusw2	equ	0xFDB
  5660                           fsr2h	equ	0xFDA
  5661                           fsr2l	equ	0xFD9
  5662                           status	equ	0xFD8
  5663                           
  5664 ;; *************** function _USBStdGetStatusHandler *****************
  5665 ;; Defined at:
  5666 ;;		line 2129 in file "usb_device.c"
  5667 ;; Parameters:    Size  Location     Type
  5668 ;;		None
  5669 ;; Auto vars:     Size  Location     Type
  5670 ;;  p               2    1[COMRAM] PTR struct __BDT
  5671 ;;		 -> NULL(0), BDT(48), 
  5672 ;; Return value:  Size  Location     Type
  5673 ;;                  1    wreg      void 
  5674 ;; Registers used:
  5675 ;;		wreg, fsr2l, fsr2h, status,2, status,0, prodl, prodh
  5676 ;; Tracked objects:
  5677 ;;		On entry : 0/0
  5678 ;;		On exit  : 0/0
  5679 ;;		Unchanged: 0/0
  5680 ;; Data sizes:     COMRAM   BANK0   BANK1   BANK2   BANK3   BANK4   BANK5   BANK6   BANK7
  5681 ;;      Params:         0       0       0       0       0       0       0       0       0
  5682 ;;      Locals:         2       0       0       0       0       0       0       0       0
  5683 ;;      Temps:          1       0       0       0       0       0       0       0       0
  5684 ;;      Totals:         3       0       0       0       0       0       0       0       0
  5685 ;;Total ram usage:        3 bytes
  5686 ;; Hardware stack levels used:    1
  5687 ;; This function calls:
  5688 ;;		Nothing
  5689 ;; This function is called by:
  5690 ;;		_USBCheckStdRequest
  5691 ;; This function uses a non-reentrant model
  5692 ;;
  5693                           
  5694                           	psect	text27
  5695  0025C0                     __ptext27:
  5696                           	opt stack 0
  5697  0025C0                     _USBStdGetStatusHandler:
  5698                           	opt stack 21
  5699                           
  5700                           ;usb_device.c: 2131: CtrlTrfData[0] = 0;
  5701                           
  5702                           ;incstack = 0
  5703  0025C0  0E00               	movlw	0
  5704  0025C2  0104               	movlb	4	; () banked
  5705  0025C4  6F38               	movwf	56,b	;volatile
  5706                           
  5707                           ;usb_device.c: 2132: CtrlTrfData[1] = 0;
  5708  0025C6  0E00               	movlw	0
  5709  0025C8  0104               	movlb	4	; () banked
  5710  0025CA  6F39               	movwf	57,b	;volatile
  5711                           
  5712                           ;usb_device.c: 2134: switch(SetupPkt.Recipient)
  5713  0025CC  D03B               	goto	i2l3203
  5714  0025CE                     i2l511:
  5715                           
  5716                           ; BSR set to: 4
  5717                           ;usb_device.c: 2137: inPipes[0].info.bits.busy = 1;
  5718  0025CE  0100               	movlb	0	; () banked
  5719  0025D0  8F75               	bsf	(_inPipes+3)& (0+255),7,b	;volatile
  5720                           
  5721                           ;usb_device.c: 2145: }
  5722                           ;usb_device.c: 2147: if(RemoteWakeup == 1)
  5723                           
  5724                           ; BSR set to: 4
  5725                           
  5726                           ; BSR set to: 0
  5727                           ;usb_device.c: 2143: {
  5728                           ;usb_device.c: 2144: CtrlTrfData[0]|=0x01;
  5729                           
  5730                           ;usb_device.c: 2142: if(0 == 1)
  5731  0025D2  043A               	decf	_RemoteWakeup,w,c	;volatile
  5732  0025D4  A4D8               	btfss	status,2,c
  5733  0025D6  D042               	goto	i2l514
  5734                           
  5735                           ;usb_device.c: 2148: {
  5736                           ;usb_device.c: 2149: CtrlTrfData[0]|=0x02;
  5737  0025D8  0104               	movlb	4	; () banked
  5738  0025DA  8338               	bsf	56,1,b	;volatile
  5739                           
  5740                           ; BSR set to: 4
  5741                           ;usb_device.c: 2150: }
  5742                           ;usb_device.c: 2151: break;
  5743  0025DC  D03F               	goto	i2l514
  5744  0025DE                     i2l515:
  5745                           
  5746                           ; BSR set to: 4
  5747                           ;usb_device.c: 2153: inPipes[0].info.bits.busy = 1;
  5748  0025DE  0100               	movlb	0	; () banked
  5749  0025E0  8F75               	bsf	(_inPipes+3)& (0+255),7,b	;volatile
  5750                           
  5751                           ;usb_device.c: 2154: break;
  5752  0025E2  D03C               	goto	i2l514
  5753  0025E4                     i2l516:
  5754                           
  5755                           ; BSR set to: 4
  5756                           ;usb_device.c: 2156: inPipes[0].info.bits.busy = 1;
  5757  0025E4  0100               	movlb	0	; () banked
  5758  0025E6  8F75               	bsf	(_inPipes+3)& (0+255),7,b	;volatile
  5759                           
  5760                           ;usb_device.c: 2160: {
  5761                           ;usb_device.c: 2161: BDT_ENTRY *p;
  5762                           ;usb_device.c: 2163: if(SetupPkt.EPDir == 0)
  5763  0025E8  0104               	movlb	4	; () banked
  5764  0025EA  BF34               	btfsc	52,7,b	;volatile
  5765  0025EC  D00B               	goto	i2l3193
  5766                           
  5767                           ; BSR set to: 4
  5768                           ;usb_device.c: 2164: {
  5769                           ;usb_device.c: 2165: p = (BDT_ENTRY*)pBDTEntryOut[SetupPkt.EPNum];
  5770  0025EE  0104               	movlb	4	; () banked
  5771  0025F0  5134               	movf	52,w,b	;volatile
  5772  0025F2  0B0F               	andlw	15
  5773  0025F4  6E01               	movwf	??_USBStdGetStatusHandler& (0+255),c
  5774  0025F6  5001               	movf	??_USBStdGetStatusHandler,w,c
  5775  0025F8  0D02               	mullw	2
  5776  0025FA  0E7E               	movlw	low _pBDTEntryOut
  5777  0025FC  24F3               	addwf	prodl,w,c
  5778  0025FE  6ED9               	movwf	fsr2l,c
  5779  002600  0E00               	movlw	high _pBDTEntryOut
  5780  002602  D00A               	goto	L6
  5781  002604                     i2l3193:
  5782                           
  5783                           ; BSR set to: 4
  5784                           ;usb_device.c: 2167: else
  5785                           ;usb_device.c: 2168: {
  5786                           ;usb_device.c: 2169: p = (BDT_ENTRY*)pBDTEntryIn[SetupPkt.EPNum];
  5787  002604  0104               	movlb	4	; () banked
  5788  002606  5134               	movf	52,w,b	;volatile
  5789  002608  0B0F               	andlw	15
  5790  00260A  6E01               	movwf	??_USBStdGetStatusHandler& (0+255),c
  5791  00260C  5001               	movf	??_USBStdGetStatusHandler,w,c
  5792  00260E  0D02               	mullw	2
  5793  002610  0E78               	movlw	low _pBDTEntryIn
  5794  002612  24F3               	addwf	prodl,w,c
  5795  002614  6ED9               	movwf	fsr2l,c
  5796  002616  0E00               	movlw	high _pBDTEntryIn
  5797  002618                     L6:
  5798  002618  20F4               	addwfc	prodh,w,c
  5799  00261A  6EDA               	movwf	fsr2h,c
  5800  00261C  CFDE F002          	movff	postinc2,USBStdGetStatusHandler@p
  5801  002620  CFDD F003          	movff	postdec2,USBStdGetStatusHandler@p+1
  5802                           
  5803                           ; BSR set to: 4
  5804                           ;usb_device.c: 2170: }
  5805                           ;usb_device.c: 2172: if((p->STAT.UOWN == 1) && (p->STAT.BSTALL == 1))
  5806                           
  5807                           ; BSR set to: 4
  5808  002624  C002  FFD9         	movff	USBStdGetStatusHandler@p,fsr2l
  5809  002628  C003  FFDA         	movff	USBStdGetStatusHandler@p+1,fsr2h
  5810  00262C  AEDF               	btfss	indf2,7,c
  5811  00262E  D016               	goto	i2l514
  5812                           
  5813                           ; BSR set to: 4
  5814  002630  C002  FFD9         	movff	USBStdGetStatusHandler@p,fsr2l
  5815  002634  C003  FFDA         	movff	USBStdGetStatusHandler@p+1,fsr2h
  5816  002638  A4DF               	btfss	indf2,2,c
  5817  00263A  D010               	goto	i2l514
  5818                           
  5819                           ; BSR set to: 4
  5820                           ;usb_device.c: 2173: CtrlTrfData[0]=0x01;
  5821  00263C  0E01               	movlw	1
  5822  00263E  0104               	movlb	4	; () banked
  5823  002640  6F38               	movwf	56,b	;volatile
  5824                           
  5825                           ; BSR set to: 4
  5826                           ;usb_device.c: 2175: }
  5827                           ;usb_device.c: 2176: }
  5828                           
  5829                           ; BSR set to: 4
  5830                           ;usb_device.c: 2174: break;
  5831  002642  D00C               	goto	i2l514
  5832  002644                     i2l3203:
  5833                           
  5834                           ; BSR set to: 4
  5835  002644  0104               	movlb	4	; () banked
  5836  002646  5130               	movf	48,w,b	;volatile
  5837  002648  0B1F               	andlw	31
  5838                           
  5839                           ; Switch size 1, requested type "space"
  5840                           ; Number of cases is 3, Range of values is 0 to 2
  5841                           ; switch strategies available:
  5842                           ; Name         Instructions Cycles
  5843                           ; simple_byte           10     6 (average)
  5844                           ;	Chosen strategy is simple_byte
  5845  00264A  0A00               	xorlw	0	; case 0
  5846  00264C  B4D8               	btfsc	status,2,c
  5847  00264E  D7BF               	goto	i2l511
  5848  002650  0A01               	xorlw	1	; case 1
  5849  002652  B4D8               	btfsc	status,2,c
  5850  002654  D7C4               	goto	i2l515
  5851  002656  0A03               	xorlw	3	; case 2
  5852  002658  B4D8               	btfsc	status,2,c
  5853  00265A  D7C4               	goto	i2l516
  5854  00265C                     i2l514:
  5855                           
  5856                           ;usb_device.c: 2178: if(inPipes[0].info.bits.busy == 1)
  5857  00265C  0100               	movlb	0	; () banked
  5858  00265E  AF75               	btfss	(_inPipes+3)& (0+255),7,b	;volatile
  5859  002660  0012               	return	
  5860                           
  5861                           ; BSR set to: 0
  5862                           ;usb_device.c: 2179: {
  5863                           ;usb_device.c: 2180: inPipes[0].pSrc.bRam = (uint8_t*)&CtrlTrfData;
  5864  002662  0E38               	movlw	56
  5865  002664  0100               	movlb	0	; () banked
  5866  002666  6F72               	movwf	_inPipes& (0+255),b	;volatile
  5867  002668  0E04               	movlw	4
  5868  00266A  0100               	movlb	0	; () banked
  5869  00266C  6F73               	movwf	(_inPipes+1)& (0+255),b	;volatile
  5870                           
  5871                           ; BSR set to: 0
  5872                           ;usb_device.c: 2181: inPipes[0].info.bits.ctrl_trf_mem = 0x01;
  5873  00266E  0100               	movlb	0	; () banked
  5874  002670  8175               	bsf	(_inPipes+3)& (0+255),0,b	;volatile
  5875                           
  5876                           ; BSR set to: 0
  5877                           ;usb_device.c: 2182: inPipes[0].wCount.v[0] = 2;
  5878  002672  0E02               	movlw	2
  5879  002674  0100               	movlb	0	; () banked
  5880  002676  6F76               	movwf	(_inPipes+4)& (0+255),b	;volatile
  5881  002678  0012               	return	
  5882  00267A                     __end_of_USBStdGetStatusHandler:
  5883                           	opt stack 0
  5884                           pclatu	equ	0xFFB
  5885                           pclath	equ	0xFFA
  5886                           tblptru	equ	0xFF8
  5887                           tblptrh	equ	0xFF7
  5888                           tblptrl	equ	0xFF6
  5889                           tablat	equ	0xFF5
  5890                           prodh	equ	0xFF4
  5891                           prodl	equ	0xFF3
  5892                           intcon	equ	0xFF2
  5893                           postinc0	equ	0xFEE
  5894                           fsr0h	equ	0xFEA
  5895                           fsr0l	equ	0xFE9
  5896                           wreg	equ	0xFE8
  5897                           indf1	equ	0xFE7
  5898                           fsr1h	equ	0xFE2
  5899                           fsr1l	equ	0xFE1
  5900                           bsr	equ	0xFE0
  5901                           indf2	equ	0xFDF
  5902                           postinc2	equ	0xFDE
  5903                           postdec2	equ	0xFDD
  5904                           plusw2	equ	0xFDB
  5905                           fsr2h	equ	0xFDA
  5906                           fsr2l	equ	0xFD9
  5907                           status	equ	0xFD8
  5908                           
  5909 ;; *************** function _USBStdGetDscHandler *****************
  5910 ;; Defined at:
  5911 ;;		line 2043 in file "usb_device.c"
  5912 ;; Parameters:    Size  Location     Type
  5913 ;;		None
  5914 ;; Auto vars:     Size  Location     Type
  5915 ;;		None
  5916 ;; Return value:  Size  Location     Type
  5917 ;;                  1    wreg      void 
  5918 ;; Registers used:
  5919 ;;		wreg, fsr1l, fsr1h, status,2, status,0, tblptrl, tblptrh, tblptru, prodl, prodh
  5920 ;; Tracked objects:
  5921 ;;		On entry : 0/0
  5922 ;;		On exit  : 0/0
  5923 ;;		Unchanged: 0/0
  5924 ;; Data sizes:     COMRAM   BANK0   BANK1   BANK2   BANK3   BANK4   BANK5   BANK6   BANK7
  5925 ;;      Params:         0       0       0       0       0       0       0       0       0
  5926 ;;      Locals:         0       0       0       0       0       0       0       0       0
  5927 ;;      Temps:          2       0       0       0       0       0       0       0       0
  5928 ;;      Totals:         2       0       0       0       0       0       0       0       0
  5929 ;;Total ram usage:        2 bytes
  5930 ;; Hardware stack levels used:    1
  5931 ;; This function calls:
  5932 ;;		Nothing
  5933 ;; This function is called by:
  5934 ;;		_USBCheckStdRequest
  5935 ;; This function uses a non-reentrant model
  5936 ;;
  5937                           
  5938                           	psect	text28
  5939  001888                     __ptext28:
  5940                           	opt stack 0
  5941  001888                     _USBStdGetDscHandler:
  5942                           	opt stack 21
  5943                           
  5944                           ;usb_device.c: 2045: if(SetupPkt.bmRequestType == 0x80)
  5945                           
  5946                           ; BSR set to: 0
  5947                           ;incstack = 0
  5948  001888  0E80               	movlw	128
  5949  00188A  0104               	movlb	4	; () banked
  5950  00188C  1930               	xorwf	48,w,b	;volatile
  5951  00188E  A4D8               	btfss	status,2,c
  5952  001890  0012               	return	
  5953                           
  5954                           ; BSR set to: 4
  5955                           ;usb_device.c: 2046: {
  5956                           ;usb_device.c: 2047: inPipes[0].info.Val = 0x00 | 0x80 | 0x40;
  5957  001892  0EC0               	movlw	192
  5958  001894  0100               	movlb	0	; () banked
  5959  001896  6F75               	movwf	(_inPipes+3)& (0+255),b	;volatile
  5960                           
  5961                           ;usb_device.c: 2049: switch(SetupPkt.bDescriptorType)
  5962  001898  D089               	goto	i2l3181
  5963  00189A                     i2l3155:
  5964                           
  5965                           ;usb_device.c: 2055: inPipes[0].pSrc.bRom = (const uint8_t*)&device_dsc;
  5966  00189A  0EB4               	movlw	low _device_dsc
  5967  00189C  0100               	movlb	0	; () banked
  5968  00189E  6F72               	movwf	_inPipes& (0+255),b	;volatile
  5969  0018A0  0E11               	movlw	high _device_dsc
  5970  0018A2  0100               	movlb	0	; () banked
  5971  0018A4  6F73               	movwf	(_inPipes+1)& (0+255),b	;volatile
  5972                           
  5973                           ; BSR set to: 0
  5974                           ;usb_device.c: 2057: inPipes[0].wCount.Val = sizeof(device_dsc);
  5975  0018A6  0E00               	movlw	0
  5976  0018A8  0100               	movlb	0	; () banked
  5977  0018AA  6F77               	movwf	(_inPipes+5)& (0+255),b	;volatile
  5978  0018AC  0E12               	movlw	18
  5979  0018AE  6F76               	movwf	(_inPipes+4)& (0+255),b	;volatile
  5980                           
  5981                           ;usb_device.c: 2058: break;
  5982  0018B0  0012               	return	
  5983  0018B2                     i2l3159:
  5984                           
  5985                           ;usb_device.c: 2063: if(SetupPkt.bDscIndex < 1)
  5986  0018B2  0104               	movlb	4	; () banked
  5987  0018B4  5132               	movf	50,w,b	;volatile
  5988  0018B6  A4D8               	btfss	status,2,c
  5989  0018B8  D044               	goto	i2l3167
  5990                           
  5991                           ; BSR set to: 4
  5992                           ;usb_device.c: 2064: {
  5993                           ;usb_device.c: 2068: inPipes[0].pSrc.bRom = *(USB_CD_Ptr+SetupPkt.bDscIndex);
  5994  0018BA  0104               	movlb	4	; () banked
  5995  0018BC  5132               	movf	50,w,b	;volatile
  5996  0018BE  0D02               	mullw	2
  5997  0018C0  0E07               	movlw	low _USB_CD_Ptr
  5998  0018C2  24F3               	addwf	prodl,w,c
  5999  0018C4  6EF6               	movwf	tblptrl,c
  6000  0018C6  0E11               	movlw	high _USB_CD_Ptr
  6001  0018C8  20F4               	addwfc	prodh,w,c
  6002  0018CA  6EF7               	movwf	tblptrh,c
  6003  0018CC                     	if	0	;There are less than 3 active tblptr bytes
  6004  0018CC                     	endif
  6005  0018CC  0009               	tblrd		*+
  6006  0018CE  CFF5 F072          	movff	tablat,_inPipes	;volatile
  6007  0018D2  000A               	tblrd		*-
  6008  0018D4  CFF5 F073          	movff	tablat,_inPipes+1	;volatile
  6009                           
  6010                           ; BSR set to: 4
  6011                           ;usb_device.c: 2074: inPipes[0].wCount.byte.LB = *(inPipes[0].pSrc.bRom+2);
  6012  0018D8  0E02               	movlw	2
  6013  0018DA  0100               	movlb	0	; () banked
  6014  0018DC  2572               	addwf	_inPipes& (0+255),w,b	;volatile
  6015  0018DE  6E01               	movwf	??_USBStdGetDscHandler& (0+255),c
  6016  0018E0  0E00               	movlw	0
  6017  0018E2  0100               	movlb	0	; () banked
  6018  0018E4  2173               	addwfc	(_inPipes+1)& (0+255),w,b	;volatile
  6019  0018E6  6E02               	movwf	(??_USBStdGetDscHandler+1)& (0+255),c
  6020  0018E8  C001  FFF6         	movff	??_USBStdGetDscHandler,tblptrl
  6021  0018EC  C002  FFF7         	movff	??_USBStdGetDscHandler+1,tblptrh
  6022  0018F0  6AF8               	clrf	tblptru,c
  6023  0018F2  0E07               	movlw	(high __ramtop+-1)
  6024  0018F4  64F7               	cpfsgt	tblptrh,c
  6025  0018F6  D003               	bra	i2u207_47
  6026  0018F8  0008               	tblrd		*
  6027  0018FA  50F5               	movf	tablat,w,c
  6028  0018FC  D005               	bra	i2u207_40
  6029  0018FE                     i2u207_47:
  6030  0018FE  CFF6 FFE1          	movff	tblptrl,fsr1l
  6031  001902  CFF7 FFE2          	movff	tblptrh,fsr1h
  6032  001906  50E7               	movf	indf1,w,c
  6033  001908                     i2u207_40:
  6034  001908  0100               	movlb	0	; () banked
  6035  00190A  6F76               	movwf	(_inPipes+4)& (0+255),b	;volatile
  6036                           
  6037                           ; BSR set to: 0
  6038                           ;usb_device.c: 2075: inPipes[0].wCount.byte.HB = *(inPipes[0].pSrc.bRom+3);
  6039  00190C  0E03               	movlw	3
  6040  00190E  0100               	movlb	0	; () banked
  6041  001910  2572               	addwf	_inPipes& (0+255),w,b	;volatile
  6042  001912  6E01               	movwf	??_USBStdGetDscHandler& (0+255),c
  6043  001914  0E00               	movlw	0
  6044  001916  0100               	movlb	0	; () banked
  6045  001918  2173               	addwfc	(_inPipes+1)& (0+255),w,b	;volatile
  6046  00191A  6E02               	movwf	(??_USBStdGetDscHandler+1)& (0+255),c
  6047  00191C  C001  FFF6         	movff	??_USBStdGetDscHandler,tblptrl
  6048  001920  C002  FFF7         	movff	??_USBStdGetDscHandler+1,tblptrh
  6049  001924  6AF8               	clrf	tblptru,c
  6050  001926  0E07               	movlw	(high __ramtop+-1)
  6051  001928  64F7               	cpfsgt	tblptrh,c
  6052  00192A  D003               	bra	i2u208_47
  6053  00192C  0008               	tblrd		*
  6054  00192E  50F5               	movf	tablat,w,c
  6055  001930  D005               	bra	i2u208_40
  6056  001932                     i2u208_47:
  6057  001932  CFF6 FFE1          	movff	tblptrl,fsr1l
  6058  001936  CFF7 FFE2          	movff	tblptrh,fsr1h
  6059  00193A  50E7               	movf	indf1,w,c
  6060  00193C                     i2u208_40:
  6061  00193C  0100               	movlb	0	; () banked
  6062  00193E  6F77               	movwf	(_inPipes+5)& (0+255),b	;volatile
  6063                           
  6064                           ;usb_device.c: 2076: }
  6065  001940  0012               	return	
  6066  001942                     i2l3167:
  6067                           
  6068                           ;usb_device.c: 2077: else
  6069                           ;usb_device.c: 2078: {
  6070                           ;usb_device.c: 2079: inPipes[0].info.Val = 0;
  6071  001942  0E00               	movlw	0
  6072  001944  0100               	movlb	0	; () banked
  6073  001946  6F75               	movwf	(_inPipes+3)& (0+255),b	;volatile
  6074                           
  6075                           ; BSR set to: 0
  6076                           ;usb_device.c: 2080: }
  6077                           ;usb_device.c: 2081: break;
  6078  001948  0012               	return	
  6079  00194A                     i2l3169:
  6080                           
  6081                           ;usb_device.c: 2086: if(SetupPkt.bDscIndex<3)
  6082  00194A  0E03               	movlw	3
  6083  00194C  0104               	movlb	4	; () banked
  6084  00194E  6132               	cpfslt	50,b	;volatile
  6085  001950  D025               	goto	i2l3175
  6086                           
  6087                           ; BSR set to: 4
  6088                           ;usb_device.c: 2087: {
  6089                           ;usb_device.c: 2089: inPipes[0].pSrc.bRom = *(USB_SD_Ptr+SetupPkt.bDscIndex);
  6090  001952  0104               	movlb	4	; () banked
  6091  001954  5132               	movf	50,w,b	;volatile
  6092  001956  0D02               	mullw	2
  6093  001958  0E01               	movlw	low _USB_SD_Ptr
  6094  00195A  24F3               	addwf	prodl,w,c
  6095  00195C  6EF6               	movwf	tblptrl,c
  6096  00195E  0E11               	movlw	high _USB_SD_Ptr
  6097  001960  20F4               	addwfc	prodh,w,c
  6098  001962  6EF7               	movwf	tblptrh,c
  6099  001964                     	if	0	;There are less than 3 active tblptr bytes
  6100  001964                     	endif
  6101  001964  0009               	tblrd		*+
  6102  001966  CFF5 F072          	movff	tablat,_inPipes	;volatile
  6103  00196A  000A               	tblrd		*-
  6104  00196C  CFF5 F073          	movff	tablat,_inPipes+1	;volatile
  6105                           
  6106                           ; BSR set to: 4
  6107                           ;usb_device.c: 2091: inPipes[0].wCount.Val = *inPipes[0].pSrc.bRom;
  6108  001970  C072  FFF6         	movff	_inPipes,tblptrl	;volatile
  6109  001974  C073  FFF7         	movff	_inPipes+1,tblptrh	;volatile
  6110  001978  6AF8               	clrf	tblptru,c
  6111  00197A  0E07               	movlw	(high __ramtop+-1)
  6112  00197C  64F7               	cpfsgt	tblptrh,c
  6113  00197E  D003               	bra	i2u210_47
  6114  001980  0008               	tblrd		*
  6115  001982  50F5               	movf	tablat,w,c
  6116  001984  D005               	bra	i2u210_40
  6117  001986                     i2u210_47:
  6118  001986  CFF6 FFE1          	movff	tblptrl,fsr1l
  6119  00198A  CFF7 FFE2          	movff	tblptrh,fsr1h
  6120  00198E  50E7               	movf	indf1,w,c
  6121  001990                     i2u210_40:
  6122  001990  6E01               	movwf	??_USBStdGetDscHandler& (0+255),c
  6123  001992  5001               	movf	??_USBStdGetDscHandler,w,c
  6124  001994  0100               	movlb	0	; () banked
  6125  001996  6F76               	movwf	(_inPipes+4)& (0+255),b	;volatile
  6126  001998  6B77               	clrf	(_inPipes+5)& (0+255),b	;volatile
  6127                           
  6128                           ;usb_device.c: 2092: }
  6129  00199A  0012               	return	
  6130  00199C                     i2l3175:
  6131                           
  6132                           ;usb_device.c: 2102: else
  6133                           ;usb_device.c: 2103: {
  6134                           ;usb_device.c: 2104: inPipes[0].info.Val = 0;
  6135  00199C  0E00               	movlw	0
  6136  00199E  0100               	movlb	0	; () banked
  6137  0019A0  6F75               	movwf	(_inPipes+3)& (0+255),b	;volatile
  6138                           
  6139                           ; BSR set to: 0
  6140                           ;usb_device.c: 2105: }
  6141                           ;usb_device.c: 2106: break;
  6142  0019A2  0012               	return	
  6143  0019A4                     i2l3177:
  6144                           
  6145                           ;usb_device.c: 2108: inPipes[0].info.Val = 0;
  6146  0019A4  0E00               	movlw	0
  6147  0019A6  0100               	movlb	0	; () banked
  6148  0019A8  6F75               	movwf	(_inPipes+3)& (0+255),b	;volatile
  6149                           
  6150                           ; BSR set to: 0
  6151                           ;usb_device.c: 2110: }
  6152                           
  6153                           ;usb_device.c: 2109: break;
  6154  0019AA  0012               	return	
  6155  0019AC                     i2l3181:
  6156                           
  6157                           ; BSR set to: 0
  6158  0019AC  0104               	movlb	4	; () banked
  6159  0019AE  5133               	movf	51,w,b	;volatile
  6160                           
  6161                           ; Switch size 1, requested type "space"
  6162                           ; Number of cases is 3, Range of values is 1 to 3
  6163                           ; switch strategies available:
  6164                           ; Name         Instructions Cycles
  6165                           ; simple_byte           10     6 (average)
  6166                           ;	Chosen strategy is simple_byte
  6167  0019B0  0A01               	xorlw	1	; case 1
  6168  0019B2  B4D8               	btfsc	status,2,c
  6169  0019B4  D772               	goto	i2l3155
  6170  0019B6  0A03               	xorlw	3	; case 2
  6171  0019B8  B4D8               	btfsc	status,2,c
  6172  0019BA  D77B               	goto	i2l3159
  6173  0019BC  0A01               	xorlw	1	; case 3
  6174  0019BE  B4D8               	btfsc	status,2,c
  6175  0019C0  D7C4               	goto	i2l3169
  6176  0019C2  D7F0               	goto	i2l3177
  6177  0019C4                     __end_of_USBStdGetDscHandler:
  6178                           	opt stack 0
  6179                           pclatu	equ	0xFFB
  6180                           pclath	equ	0xFFA
  6181                           tblptru	equ	0xFF8
  6182                           tblptrh	equ	0xFF7
  6183                           tblptrl	equ	0xFF6
  6184                           tablat	equ	0xFF5
  6185                           prodh	equ	0xFF4
  6186                           prodl	equ	0xFF3
  6187                           intcon	equ	0xFF2
  6188                           postinc0	equ	0xFEE
  6189                           fsr0h	equ	0xFEA
  6190                           fsr0l	equ	0xFE9
  6191                           wreg	equ	0xFE8
  6192                           indf1	equ	0xFE7
  6193                           fsr1h	equ	0xFE2
  6194                           fsr1l	equ	0xFE1
  6195                           bsr	equ	0xFE0
  6196                           indf2	equ	0xFDF
  6197                           postinc2	equ	0xFDE
  6198                           postdec2	equ	0xFDD
  6199                           plusw2	equ	0xFDB
  6200                           fsr2h	equ	0xFDA
  6201                           fsr2l	equ	0xFD9
  6202                           status	equ	0xFD8
  6203                           
  6204 ;; *************** function _USBStdFeatureReqHandler *****************
  6205 ;; Defined at:
  6206 ;;		line 2757 in file "usb_device.c"
  6207 ;; Parameters:    Size  Location     Type
  6208 ;;		None
  6209 ;; Auto vars:     Size  Location     Type
  6210 ;;  p               2   24[COMRAM] PTR struct __BDT
  6211 ;;		 -> NULL(0), BDT(48), 
  6212 ;;  pUEP            2   21[COMRAM] PTR unsigned char 
  6213 ;;		 -> UEP0(1), 
  6214 ;;  current_ep_d    1   23[COMRAM] struct .
  6215 ;; Return value:  Size  Location     Type
  6216 ;;                  1    wreg      void 
  6217 ;; Registers used:
  6218 ;;		wreg, fsr2l, fsr2h, status,2, status,0, prodl, prodh, cstack
  6219 ;; Tracked objects:
  6220 ;;		On entry : 0/0
  6221 ;;		On exit  : 0/0
  6222 ;;		Unchanged: 0/0
  6223 ;; Data sizes:     COMRAM   BANK0   BANK1   BANK2   BANK3   BANK4   BANK5   BANK6   BANK7
  6224 ;;      Params:         0       0       0       0       0       0       0       0       0
  6225 ;;      Locals:         5       0       0       0       0       0       0       0       0
  6226 ;;      Temps:          1       0       0       0       0       0       0       0       0
  6227 ;;      Totals:         6       0       0       0       0       0       0       0       0
  6228 ;;Total ram usage:        6 bytes
  6229 ;; Hardware stack levels used:    1
  6230 ;; Hardware stack levels required when called:    5
  6231 ;; This function calls:
  6232 ;;		_USER_USB_CALLBACK_EVENT_HANDLER
  6233 ;; This function is called by:
  6234 ;;		_USBCheckStdRequest
  6235 ;; This function uses a non-reentrant model
  6236 ;;
  6237                           
  6238                           	psect	text29
  6239  0011CC                     __ptext29:
  6240                           	opt stack 0
  6241  0011CC                     _USBStdFeatureReqHandler:
  6242                           	opt stack 16
  6243                           
  6244                           ;usb_device.c: 2759: BDT_ENTRY *p;
  6245                           ;usb_device.c: 2760: EP_STATUS current_ep_data;
  6246                           ;usb_device.c: 2764: unsigned char* pUEP;
  6247                           ;usb_device.c: 2802: if((SetupPkt.bFeature == 1)&&
  6248                           ;usb_device.c: 2803: (SetupPkt.Recipient == (0x00)))
  6249                           
  6250                           ;incstack = 0
  6251  0011CC  0104               	movlb	4	; () banked
  6252  0011CE  0532               	decf	50,w,b	;volatile
  6253  0011D0  A4D8               	btfss	status,2,c
  6254  0011D2  D011               	goto	i2l590
  6255                           
  6256                           ; BSR set to: 4
  6257  0011D4  0104               	movlb	4	; () banked
  6258  0011D6  5130               	movf	48,w,b	;volatile
  6259  0011D8  0B1F               	andlw	31
  6260  0011DA  0900               	iorlw	0
  6261  0011DC  A4D8               	btfss	status,2,c
  6262  0011DE  D00B               	goto	i2l590
  6263                           
  6264                           ; BSR set to: 4
  6265                           ;usb_device.c: 2804: {
  6266                           ;usb_device.c: 2805: inPipes[0].info.bits.busy = 1;
  6267  0011E0  0100               	movlb	0	; () banked
  6268  0011E2  8F75               	bsf	(_inPipes+3)& (0+255),7,b	;volatile
  6269                           
  6270                           ; BSR set to: 0
  6271                           ;usb_device.c: 2806: if(SetupPkt.bRequest == 3)
  6272  0011E4  0E03               	movlw	3
  6273  0011E6  0104               	movlb	4	; () banked
  6274  0011E8  1931               	xorwf	49,w,b	;volatile
  6275  0011EA  A4D8               	btfss	status,2,c
  6276  0011EC  D002               	goto	i2l3221
  6277                           
  6278                           ; BSR set to: 4
  6279                           ;usb_device.c: 2807: RemoteWakeup = 1;
  6280  0011EE  0E01               	movlw	1
  6281  0011F0  D001               	goto	L7
  6282  0011F2                     i2l3221:
  6283                           
  6284                           ; BSR set to: 4
  6285                           ;usb_device.c: 2808: else
  6286                           ;usb_device.c: 2809: RemoteWakeup = 0;
  6287  0011F2  0E00               	movlw	0
  6288  0011F4                     L7:
  6289  0011F4  6E3A               	movwf	_RemoteWakeup,c	;volatile
  6290  0011F6                     i2l590:
  6291                           
  6292                           ; BSR set to: 4
  6293                           ;usb_device.c: 2810: }
  6294                           ;usb_device.c: 2813: if((SetupPkt.bFeature == 0)&&
  6295                           ;usb_device.c: 2814: (SetupPkt.Recipient == (0x02))&&
  6296                           ;usb_device.c: 2815: (SetupPkt.EPNum != 0) && (SetupPkt.EPNum <= 2)&&
  6297                           ;usb_device.c: 2816: (USBDeviceState == CONFIGURED_STATE))
  6298  0011F6  0104               	movlb	4	; () banked
  6299  0011F8  5132               	movf	50,w,b	;volatile
  6300  0011FA  A4D8               	btfss	status,2,c
  6301  0011FC  0012               	return	
  6302                           
  6303                           ; BSR set to: 4
  6304  0011FE  0104               	movlb	4	; () banked
  6305  001200  5130               	movf	48,w,b	;volatile
  6306  001202  0B1F               	andlw	31
  6307  001204  0A02               	xorlw	2
  6308  001206  A4D8               	btfss	status,2,c
  6309  001208  0012               	return	
  6310                           
  6311                           ; BSR set to: 4
  6312  00120A  0104               	movlb	4	; () banked
  6313  00120C  5134               	movf	52,w,b	;volatile
  6314  00120E  0B0F               	andlw	15
  6315  001210  0900               	iorlw	0
  6316  001212  B4D8               	btfsc	status,2,c
  6317  001214  0012               	return	
  6318                           
  6319                           ; BSR set to: 4
  6320  001216  0104               	movlb	4	; () banked
  6321  001218  5134               	movf	52,w,b	;volatile
  6322  00121A  0B0F               	andlw	15
  6323  00121C  6E15               	movwf	??_USBStdFeatureReqHandler& (0+255),c
  6324  00121E  0E03               	movlw	3
  6325  001220  6015               	cpfslt	??_USBStdFeatureReqHandler,c
  6326  001222  0012               	return	
  6327                           
  6328                           ; BSR set to: 4
  6329  001224  0E20               	movlw	32
  6330  001226  183F               	xorwf	_USBDeviceState,w,c	;volatile
  6331  001228  A4D8               	btfss	status,2,c
  6332  00122A  0012               	return	
  6333                           
  6334                           ; BSR set to: 4
  6335                           ;usb_device.c: 2817: {
  6336                           ;usb_device.c: 2820: inPipes[0].info.bits.busy = 1;
  6337  00122C  0100               	movlb	0	; () banked
  6338  00122E  8F75               	bsf	(_inPipes+3)& (0+255),7,b	;volatile
  6339                           
  6340                           ;usb_device.c: 2823: if(SetupPkt.EPDir == 0)
  6341  001230  0104               	movlb	4	; () banked
  6342  001232  BF34               	btfsc	52,7,b	;volatile
  6343  001234  D01B               	goto	i2l3235
  6344                           
  6345                           ; BSR set to: 4
  6346                           ;usb_device.c: 2824: {
  6347                           ;usb_device.c: 2825: p = (BDT_ENTRY*)pBDTEntryOut[SetupPkt.EPNum];
  6348  001236  0104               	movlb	4	; () banked
  6349  001238  5134               	movf	52,w,b	;volatile
  6350  00123A  0B0F               	andlw	15
  6351  00123C  6E15               	movwf	??_USBStdFeatureReqHandler& (0+255),c
  6352  00123E  5015               	movf	??_USBStdFeatureReqHandler,w,c
  6353  001240  0D02               	mullw	2
  6354  001242  0E7E               	movlw	low _pBDTEntryOut
  6355  001244  24F3               	addwf	prodl,w,c
  6356  001246  6ED9               	movwf	fsr2l,c
  6357  001248  0E00               	movlw	high _pBDTEntryOut
  6358  00124A  20F4               	addwfc	prodh,w,c
  6359  00124C  6EDA               	movwf	fsr2h,c
  6360  00124E  CFDE F019          	movff	postinc2,USBStdFeatureReqHandler@p
  6361  001252  CFDD F01A          	movff	postdec2,USBStdFeatureReqHandler@p+1
  6362                           
  6363                           ;usb_device.c: 2826: current_ep_data.Val = ep_data_out[SetupPkt.EPNum].Val;
  6364  001256  0104               	movlb	4	; () banked
  6365  001258  5134               	movf	52,w,b	;volatile
  6366  00125A  0B0F               	andlw	15
  6367  00125C  6E15               	movwf	??_USBStdFeatureReqHandler& (0+255),c
  6368  00125E  5015               	movf	??_USBStdFeatureReqHandler,w,c
  6369  001260  0D01               	mullw	1
  6370  001262  0E87               	movlw	low _ep_data_out
  6371  001264  24F3               	addwf	prodl,w,c
  6372  001266  6ED9               	movwf	fsr2l,c
  6373  001268  0E00               	movlw	high _ep_data_out
  6374  00126A  D01A               	goto	L8
  6375  00126C                     i2l3235:
  6376                           
  6377                           ; BSR set to: 4
  6378                           ;usb_device.c: 2828: else
  6379                           ;usb_device.c: 2829: {
  6380                           ;usb_device.c: 2830: p = (BDT_ENTRY*)pBDTEntryIn[SetupPkt.EPNum];
  6381  00126C  0104               	movlb	4	; () banked
  6382  00126E  5134               	movf	52,w,b	;volatile
  6383  001270  0B0F               	andlw	15
  6384  001272  6E15               	movwf	??_USBStdFeatureReqHandler& (0+255),c
  6385  001274  5015               	movf	??_USBStdFeatureReqHandler,w,c
  6386  001276  0D02               	mullw	2
  6387  001278  0E78               	movlw	low _pBDTEntryIn
  6388  00127A  24F3               	addwf	prodl,w,c
  6389  00127C  6ED9               	movwf	fsr2l,c
  6390  00127E  0E00               	movlw	high _pBDTEntryIn
  6391  001280  20F4               	addwfc	prodh,w,c
  6392  001282  6EDA               	movwf	fsr2h,c
  6393  001284  CFDE F019          	movff	postinc2,USBStdFeatureReqHandler@p
  6394  001288  CFDD F01A          	movff	postdec2,USBStdFeatureReqHandler@p+1
  6395                           
  6396                           ;usb_device.c: 2831: current_ep_data.Val = ep_data_in[SetupPkt.EPNum].Val;
  6397  00128C  0104               	movlb	4	; () banked
  6398  00128E  5134               	movf	52,w,b	;volatile
  6399  001290  0B0F               	andlw	15
  6400  001292  6E15               	movwf	??_USBStdFeatureReqHandler& (0+255),c
  6401  001294  5015               	movf	??_USBStdFeatureReqHandler,w,c
  6402  001296  0D01               	mullw	1
  6403  001298  0E84               	movlw	low _ep_data_in
  6404  00129A  24F3               	addwf	prodl,w,c
  6405  00129C  6ED9               	movwf	fsr2l,c
  6406  00129E  0E00               	movlw	high _ep_data_in
  6407  0012A0                     L8:
  6408  0012A0  20F4               	addwfc	prodh,w,c
  6409  0012A2  6EDA               	movwf	fsr2h,c
  6410  0012A4  50DF               	movf	indf2,w,c
  6411  0012A6  6E18               	movwf	USBStdFeatureReqHandler@current_ep_data,c
  6412                           
  6413                           ; BSR set to: 4
  6414                           ;usb_device.c: 2832: }
  6415                           ;usb_device.c: 2838: if(current_ep_data.bits.ping_pong_state == 0)
  6416                           
  6417                           ; BSR set to: 4
  6418  0012A8  B018               	btfsc	USBStdFeatureReqHandler@current_ep_data,0,c
  6419  0012AA  D002               	goto	i2l3241
  6420                           
  6421                           ; BSR set to: 4
  6422                           ;usb_device.c: 2839: {
  6423                           ;usb_device.c: 2840: {((uint8_t_VAL*)&p)->Val &= ~0x0004;};
  6424  0012AC  9419               	bcf	USBStdFeatureReqHandler@p,2,c
  6425                           
  6426                           ;usb_device.c: 2841: }
  6427  0012AE  D001               	goto	i2l3243
  6428  0012B0                     i2l3241:
  6429                           
  6430                           ; BSR set to: 4
  6431                           ;usb_device.c: 2842: else
  6432                           ;usb_device.c: 2843: {
  6433                           ;usb_device.c: 2844: {((uint8_t_VAL*)&p)->Val |= 0x0004;};
  6434  0012B0  8419               	bsf	USBStdFeatureReqHandler@p,2,c
  6435  0012B2                     i2l3243:
  6436                           
  6437                           ; BSR set to: 4
  6438                           ;usb_device.c: 2845: }
  6439                           ;usb_device.c: 2850: if(SetupPkt.EPDir == 0)
  6440  0012B2  0104               	movlb	4	; () banked
  6441  0012B4  BF34               	btfsc	52,7,b	;volatile
  6442  0012B6  D00B               	goto	i2l3247
  6443                           
  6444                           ; BSR set to: 4
  6445                           ;usb_device.c: 2851: {
  6446                           ;usb_device.c: 2852: pBDTEntryOut[SetupPkt.EPNum] = (volatile BDT_ENTRY *)p;
  6447  0012B8  0104               	movlb	4	; () banked
  6448  0012BA  5134               	movf	52,w,b	;volatile
  6449  0012BC  0B0F               	andlw	15
  6450  0012BE  6E15               	movwf	??_USBStdFeatureReqHandler& (0+255),c
  6451  0012C0  5015               	movf	??_USBStdFeatureReqHandler,w,c
  6452  0012C2  0D02               	mullw	2
  6453  0012C4  0E7E               	movlw	low _pBDTEntryOut
  6454  0012C6  24F3               	addwf	prodl,w,c
  6455  0012C8  6ED9               	movwf	fsr2l,c
  6456  0012CA  0E00               	movlw	high _pBDTEntryOut
  6457  0012CC  D00A               	goto	L9
  6458  0012CE                     i2l3247:
  6459                           
  6460                           ; BSR set to: 4
  6461                           ;usb_device.c: 2854: else
  6462                           ;usb_device.c: 2855: {
  6463                           ;usb_device.c: 2856: pBDTEntryIn[SetupPkt.EPNum] = (volatile BDT_ENTRY *)p;
  6464  0012CE  0104               	movlb	4	; () banked
  6465  0012D0  5134               	movf	52,w,b	;volatile
  6466  0012D2  0B0F               	andlw	15
  6467  0012D4  6E15               	movwf	??_USBStdFeatureReqHandler& (0+255),c
  6468  0012D6  5015               	movf	??_USBStdFeatureReqHandler,w,c
  6469  0012D8  0D02               	mullw	2
  6470  0012DA  0E78               	movlw	low _pBDTEntryIn
  6471  0012DC  24F3               	addwf	prodl,w,c
  6472  0012DE  6ED9               	movwf	fsr2l,c
  6473  0012E0  0E00               	movlw	high _pBDTEntryIn
  6474  0012E2                     L9:
  6475  0012E2  20F4               	addwfc	prodh,w,c
  6476  0012E4  6EDA               	movwf	fsr2h,c
  6477  0012E6  C019  FFDE         	movff	USBStdFeatureReqHandler@p,postinc2
  6478  0012EA  C01A  FFDD         	movff	USBStdFeatureReqHandler@p+1,postdec2
  6479                           
  6480                           ; BSR set to: 4
  6481                           ;usb_device.c: 2857: }
  6482                           ;usb_device.c: 2860: if(SetupPkt.bRequest == 3)
  6483                           
  6484                           ; BSR set to: 4
  6485  0012EE  0E03               	movlw	3
  6486  0012F0  0104               	movlb	4	; () banked
  6487  0012F2  1931               	xorwf	49,w,b	;volatile
  6488  0012F4  A4D8               	btfss	status,2,c
  6489  0012F6  D02F               	goto	i2l3263
  6490                           
  6491                           ; BSR set to: 4
  6492                           ;usb_device.c: 2861: {
  6493                           ;usb_device.c: 2862: if(p->STAT.UOWN == 1)
  6494  0012F8  C019  FFD9         	movff	USBStdFeatureReqHandler@p,fsr2l
  6495  0012FC  C01A  FFDA         	movff	USBStdFeatureReqHandler@p+1,fsr2h
  6496  001300  AEDF               	btfss	indf2,7,c
  6497  001302  D01C               	goto	i2l3259
  6498                           
  6499                           ; BSR set to: 4
  6500                           ;usb_device.c: 2863: {
  6501                           ;usb_device.c: 2866: if(SetupPkt.EPDir == 0)
  6502  001304  0104               	movlb	4	; () banked
  6503  001306  BF34               	btfsc	52,7,b	;volatile
  6504  001308  D00B               	goto	i2l3257
  6505                           
  6506                           ; BSR set to: 4
  6507                           ;usb_device.c: 2867: {
  6508                           ;usb_device.c: 2868: ep_data_out[SetupPkt.EPNum].bits.transfer_terminated = 1;
  6509  00130A  0104               	movlb	4	; () banked
  6510  00130C  5134               	movf	52,w,b	;volatile
  6511  00130E  0B0F               	andlw	15
  6512  001310  6E15               	movwf	??_USBStdFeatureReqHandler& (0+255),c
  6513  001312  5015               	movf	??_USBStdFeatureReqHandler,w,c
  6514  001314  0D01               	mullw	1
  6515  001316  0E87               	movlw	low _ep_data_out
  6516  001318  24F3               	addwf	prodl,w,c
  6517  00131A  6ED9               	movwf	fsr2l,c
  6518  00131C  0E00               	movlw	high _ep_data_out
  6519  00131E  D00A               	goto	L10
  6520  001320                     i2l3257:
  6521                           
  6522                           ;usb_device.c: 2870: else
  6523                           ;usb_device.c: 2871: {
  6524                           ;usb_device.c: 2872: ep_data_in[SetupPkt.EPNum].bits.transfer_terminated = 1;
  6525  001320  0104               	movlb	4	; () banked
  6526  001322  5134               	movf	52,w,b	;volatile
  6527  001324  0B0F               	andlw	15
  6528  001326  6E15               	movwf	??_USBStdFeatureReqHandler& (0+255),c
  6529  001328  5015               	movf	??_USBStdFeatureReqHandler,w,c
  6530  00132A  0D01               	mullw	1
  6531  00132C  0E84               	movlw	low _ep_data_in
  6532  00132E  24F3               	addwf	prodl,w,c
  6533  001330  6ED9               	movwf	fsr2l,c
  6534  001332  0E00               	movlw	high _ep_data_in
  6535  001334                     L10:
  6536  001334  20F4               	addwfc	prodh,w,c
  6537  001336  6EDA               	movwf	fsr2h,c
  6538  001338  0100               	movlb	0	; () banked
  6539  00133A  82DF               	bsf	indf2,1,c
  6540  00133C                     i2l3259:
  6541                           
  6542                           ;usb_device.c: 2873: }
  6543                           ;usb_device.c: 2874: }
  6544                           ;usb_device.c: 2877: p->STAT.Val |= 0x04;
  6545  00133C  C019  FFD9         	movff	USBStdFeatureReqHandler@p,fsr2l
  6546  001340  C01A  FFDA         	movff	USBStdFeatureReqHandler@p+1,fsr2h
  6547  001344  0E00               	movlw	0
  6548  001346  84DB               	bsf	plusw2,2,c
  6549                           
  6550                           ;usb_device.c: 2878: p->STAT.Val |= 0x80;
  6551  001348  C019  FFD9         	movff	USBStdFeatureReqHandler@p,fsr2l
  6552  00134C  C01A  FFDA         	movff	USBStdFeatureReqHandler@p+1,fsr2h
  6553  001350  0E00               	movlw	0
  6554  001352  8EDB               	bsf	plusw2,7,c
  6555                           
  6556                           ;usb_device.c: 2879: }
  6557  001354  0012               	return	
  6558  001356                     i2l3263:
  6559                           
  6560                           ;usb_device.c: 2880: else
  6561                           ;usb_device.c: 2881: {
  6562                           ;usb_device.c: 2885: {((uint8_t_VAL*)&p)->Val ^= 0x0004;};
  6563  001356  0E04               	movlw	4
  6564  001358  1A19               	xorwf	USBStdFeatureReqHandler@p,f,c
  6565                           
  6566                           ;usb_device.c: 2887: if(p->STAT.UOWN == 1)
  6567  00135A  C019  FFD9         	movff	USBStdFeatureReqHandler@p,fsr2l
  6568  00135E  C01A  FFDA         	movff	USBStdFeatureReqHandler@p+1,fsr2h
  6569  001362  AEDF               	btfss	indf2,7,c
  6570  001364  D01B               	goto	i2l3273
  6571                           
  6572                           ;usb_device.c: 2888: {
  6573                           ;usb_device.c: 2891: p->STAT.Val &= (~0x80);
  6574  001366  C019  FFD9         	movff	USBStdFeatureReqHandler@p,fsr2l
  6575  00136A  C01A  FFDA         	movff	USBStdFeatureReqHandler@p+1,fsr2h
  6576  00136E  0E7F               	movlw	127
  6577  001370  16DF               	andwf	indf2,f,c
  6578                           
  6579                           ;usb_device.c: 2892: p->STAT.Val |= 0x40;
  6580  001372  C019  FFD9         	movff	USBStdFeatureReqHandler@p,fsr2l
  6581  001376  C01A  FFDA         	movff	USBStdFeatureReqHandler@p+1,fsr2h
  6582  00137A  0E00               	movlw	0
  6583  00137C  8CDB               	bsf	plusw2,6,c
  6584                           
  6585                           ;usb_device.c: 2893: USER_USB_CALLBACK_EVENT_HANDLER(EVENT_TRANSFER_TERMINATED,p,sizeof(
      +                          p));
  6586  00137E  0E00               	movlw	0
  6587  001380  6E0E               	movwf	USER_USB_CALLBACK_EVENT_HANDLER@event+1,c
  6588  001382  0E05               	movlw	5
  6589  001384  6E0D               	movwf	USER_USB_CALLBACK_EVENT_HANDLER@event,c
  6590  001386  C019  F00F         	movff	USBStdFeatureReqHandler@p,USER_USB_CALLBACK_EVENT_HANDLER@pdata
  6591  00138A  C01A  F010         	movff	USBStdFeatureReqHandler@p+1,USER_USB_CALLBACK_EVENT_HANDLER@pdata+1
  6592  00138E  0E00               	movlw	0
  6593  001390  6E12               	movwf	USER_USB_CALLBACK_EVENT_HANDLER@size+1,c
  6594  001392  0E02               	movlw	2
  6595  001394  6E11               	movwf	USER_USB_CALLBACK_EVENT_HANDLER@size,c
  6596  001396  EC0C  F015         	call	_USER_USB_CALLBACK_EVENT_HANDLER	;wreg free
  6597                           
  6598                           ;usb_device.c: 2894: }
  6599  00139A  D006               	goto	i2l3275
  6600  00139C                     i2l3273:
  6601                           
  6602                           ;usb_device.c: 2895: else
  6603                           ;usb_device.c: 2896: {
  6604                           ;usb_device.c: 2898: p->STAT.Val |= 0x40;
  6605  00139C  C019  FFD9         	movff	USBStdFeatureReqHandler@p,fsr2l
  6606  0013A0  C01A  FFDA         	movff	USBStdFeatureReqHandler@p+1,fsr2h
  6607  0013A4  0E00               	movlw	0
  6608  0013A6  8CDB               	bsf	plusw2,6,c
  6609  0013A8                     i2l3275:
  6610                           
  6611                           ;usb_device.c: 2899: }
  6612                           ;usb_device.c: 2903: {((uint8_t_VAL*)&p)->Val ^= 0x0004;};
  6613  0013A8  0E04               	movlw	4
  6614  0013AA  1A19               	xorwf	USBStdFeatureReqHandler@p,f,c
  6615                           
  6616                           ;usb_device.c: 2909: if((current_ep_data.bits.transfer_terminated != 0) || (p->STAT.UOWN
      +                           == 1))
  6617  0013AC  B218               	btfsc	USBStdFeatureReqHandler@current_ep_data,1,c
  6618  0013AE  D006               	goto	i2l609
  6619  0013B0  C019  FFD9         	movff	USBStdFeatureReqHandler@p,fsr2l
  6620  0013B4  C01A  FFDA         	movff	USBStdFeatureReqHandler@p+1,fsr2h
  6621  0013B8  AEDF               	btfss	indf2,7,c
  6622  0013BA  D031               	goto	i2l3289
  6623  0013BC                     i2l609:
  6624                           
  6625                           ;usb_device.c: 2910: {
  6626                           ;usb_device.c: 2911: if(SetupPkt.EPDir == 0)
  6627  0013BC  0104               	movlb	4	; () banked
  6628  0013BE  BF34               	btfsc	52,7,b	;volatile
  6629  0013C0  D00B               	goto	i2l3283
  6630                           
  6631                           ; BSR set to: 4
  6632                           ;usb_device.c: 2912: {
  6633                           ;usb_device.c: 2913: ep_data_out[SetupPkt.EPNum].bits.transfer_terminated = 0;
  6634  0013C2  0104               	movlb	4	; () banked
  6635  0013C4  5134               	movf	52,w,b	;volatile
  6636  0013C6  0B0F               	andlw	15
  6637  0013C8  6E15               	movwf	??_USBStdFeatureReqHandler& (0+255),c
  6638  0013CA  5015               	movf	??_USBStdFeatureReqHandler,w,c
  6639  0013CC  0D01               	mullw	1
  6640  0013CE  0E87               	movlw	low _ep_data_out
  6641  0013D0  24F3               	addwf	prodl,w,c
  6642  0013D2  6ED9               	movwf	fsr2l,c
  6643  0013D4  0E00               	movlw	high _ep_data_out
  6644  0013D6  D00A               	goto	L11
  6645  0013D8                     i2l3283:
  6646                           
  6647                           ;usb_device.c: 2915: else
  6648                           ;usb_device.c: 2916: {
  6649                           ;usb_device.c: 2917: ep_data_in[SetupPkt.EPNum].bits.transfer_terminated = 0;
  6650  0013D8  0104               	movlb	4	; () banked
  6651  0013DA  5134               	movf	52,w,b	;volatile
  6652  0013DC  0B0F               	andlw	15
  6653  0013DE  6E15               	movwf	??_USBStdFeatureReqHandler& (0+255),c
  6654  0013E0  5015               	movf	??_USBStdFeatureReqHandler,w,c
  6655  0013E2  0D01               	mullw	1
  6656  0013E4  0E84               	movlw	low _ep_data_in
  6657  0013E6  24F3               	addwf	prodl,w,c
  6658  0013E8  6ED9               	movwf	fsr2l,c
  6659  0013EA  0E00               	movlw	high _ep_data_in
  6660  0013EC                     L11:
  6661  0013EC  20F4               	addwfc	prodh,w,c
  6662  0013EE  6EDA               	movwf	fsr2h,c
  6663  0013F0  0100               	movlb	0	; () banked
  6664  0013F2  92DF               	bcf	indf2,1,c
  6665                           
  6666                           ; BSR set to: 0
  6667                           ;usb_device.c: 2918: }
  6668                           ;usb_device.c: 2920: p->STAT.Val &= ~(0x80 | 0x40 | 0x04);
  6669                           
  6670                           ; BSR set to: 0
  6671  0013F4  C019  FFD9         	movff	USBStdFeatureReqHandler@p,fsr2l
  6672  0013F8  C01A  FFDA         	movff	USBStdFeatureReqHandler@p+1,fsr2h
  6673  0013FC  0E3B               	movlw	59
  6674  0013FE  16DF               	andwf	indf2,f,c
  6675                           
  6676                           ; BSR set to: 0
  6677                           ;usb_device.c: 2923: USER_USB_CALLBACK_EVENT_HANDLER(EVENT_TRANSFER_TERMINATED,p,sizeof(
      +                          p));
  6678  001400  0E00               	movlw	0
  6679  001402  6E0E               	movwf	USER_USB_CALLBACK_EVENT_HANDLER@event+1,c
  6680  001404  0E05               	movlw	5
  6681  001406  6E0D               	movwf	USER_USB_CALLBACK_EVENT_HANDLER@event,c
  6682  001408  C019  F00F         	movff	USBStdFeatureReqHandler@p,USER_USB_CALLBACK_EVENT_HANDLER@pdata
  6683  00140C  C01A  F010         	movff	USBStdFeatureReqHandler@p+1,USER_USB_CALLBACK_EVENT_HANDLER@pdata+1
  6684  001410  0E00               	movlw	0
  6685  001412  6E12               	movwf	USER_USB_CALLBACK_EVENT_HANDLER@size+1,c
  6686  001414  0E02               	movlw	2
  6687  001416  6E11               	movwf	USER_USB_CALLBACK_EVENT_HANDLER@size,c
  6688  001418  EC0C  F015         	call	_USER_USB_CALLBACK_EVENT_HANDLER	;wreg free
  6689                           
  6690                           ;usb_device.c: 2924: }
  6691  00141C  D006               	goto	i2l3291
  6692  00141E                     i2l3289:
  6693                           
  6694                           ;usb_device.c: 2925: else
  6695                           ;usb_device.c: 2926: {
  6696                           ;usb_device.c: 2928: p->STAT.Val &= ~(0x80 | 0x40 | 0x04);
  6697  00141E  C019  FFD9         	movff	USBStdFeatureReqHandler@p,fsr2l
  6698  001422  C01A  FFDA         	movff	USBStdFeatureReqHandler@p+1,fsr2h
  6699  001426  0E3B               	movlw	59
  6700  001428  16DF               	andwf	indf2,f,c
  6701  00142A                     i2l3291:
  6702                           
  6703                           ;usb_device.c: 2929: }
  6704                           ;usb_device.c: 2976: pUEP = (unsigned char*)(&UEP0+SetupPkt.EPNum);
  6705  00142A  0104               	movlb	4	; () banked
  6706  00142C  5134               	movf	52,w,b	;volatile
  6707  00142E  0B0F               	andlw	15
  6708  001430  6E15               	movwf	??_USBStdFeatureReqHandler& (0+255),c
  6709  001432  5015               	movf	??_USBStdFeatureReqHandler,w,c
  6710  001434  0D01               	mullw	1
  6711  001436  0E70               	movlw	112
  6712  001438  24F3               	addwf	prodl,w,c
  6713  00143A  6E16               	movwf	USBStdFeatureReqHandler@pUEP,c
  6714  00143C  0E0F               	movlw	15
  6715  00143E  20F4               	addwfc	prodh,w,c
  6716  001440  6E17               	movwf	USBStdFeatureReqHandler@pUEP+1,c
  6717                           
  6718                           ; BSR set to: 4
  6719                           ;usb_device.c: 2980: *pUEP &= ~0x0001;
  6720  001442  C016  FFD9         	movff	USBStdFeatureReqHandler@pUEP,fsr2l
  6721  001446  C017  FFDA         	movff	USBStdFeatureReqHandler@pUEP+1,fsr2h
  6722  00144A  0EFE               	movlw	254
  6723  00144C  16DF               	andwf	indf2,f,c
  6724                           
  6725                           ; BSR set to: 4
  6726  00144E  0012               	return	
  6727  001450                     __end_of_USBStdFeatureReqHandler:
  6728                           	opt stack 0
  6729                           pclatu	equ	0xFFB
  6730                           pclath	equ	0xFFA
  6731                           tblptru	equ	0xFF8
  6732                           tblptrh	equ	0xFF7
  6733                           tblptrl	equ	0xFF6
  6734                           tablat	equ	0xFF5
  6735                           prodh	equ	0xFF4
  6736                           prodl	equ	0xFF3
  6737                           intcon	equ	0xFF2
  6738                           postinc0	equ	0xFEE
  6739                           fsr0h	equ	0xFEA
  6740                           fsr0l	equ	0xFE9
  6741                           wreg	equ	0xFE8
  6742                           indf1	equ	0xFE7
  6743                           fsr1h	equ	0xFE2
  6744                           fsr1l	equ	0xFE1
  6745                           bsr	equ	0xFE0
  6746                           indf2	equ	0xFDF
  6747                           postinc2	equ	0xFDE
  6748                           postdec2	equ	0xFDD
  6749                           plusw2	equ	0xFDB
  6750                           fsr2h	equ	0xFDA
  6751                           fsr2l	equ	0xFD9
  6752                           status	equ	0xFD8
  6753                           
  6754 ;; *************** function _USER_USB_CALLBACK_EVENT_HANDLER *****************
  6755 ;; Defined at:
  6756 ;;		line 215 in file "main.c"
  6757 ;; Parameters:    Size  Location     Type
  6758 ;;  event           2   12[COMRAM] enum E3811
  6759 ;;  pdata           2   14[COMRAM] PTR void 
  6760 ;;		 -> USTATcopy(1), USBActiveConfiguration(1), NULL(0), BDT(48), 
  6761 ;;  size            2   16[COMRAM] unsigned int 
  6762 ;; Auto vars:     Size  Location     Type
  6763 ;;		None
  6764 ;; Return value:  Size  Location     Type
  6765 ;;                  1    wreg      unsigned char 
  6766 ;; Registers used:
  6767 ;;		wreg, fsr2l, fsr2h, status,2, status,0, prodl, prodh, cstack
  6768 ;; Tracked objects:
  6769 ;;		On entry : 0/0
  6770 ;;		On exit  : 0/0
  6771 ;;		Unchanged: 0/0
  6772 ;; Data sizes:     COMRAM   BANK0   BANK1   BANK2   BANK3   BANK4   BANK5   BANK6   BANK7
  6773 ;;      Params:         6       0       0       0       0       0       0       0       0
  6774 ;;      Locals:         0       0       0       0       0       0       0       0       0
  6775 ;;      Temps:          2       0       0       0       0       0       0       0       0
  6776 ;;      Totals:         8       0       0       0       0       0       0       0       0
  6777 ;;Total ram usage:        8 bytes
  6778 ;; Hardware stack levels used:    1
  6779 ;; Hardware stack levels required when called:    4
  6780 ;; This function calls:
  6781 ;;		_APP_DeviceCDCBasicDemoInitialize
  6782 ;;		_APP_LEDUpdateUSBStatus
  6783 ;;		_USBCheckCDCRequest
  6784 ;; This function is called by:
  6785 ;;		_USBDeviceTasks
  6786 ;;		_USBStdSetCfgHandler
  6787 ;;		_USBSuspend
  6788 ;;		_USBWakeFromSuspend
  6789 ;;		_USBCtrlTrfSetupHandler
  6790 ;;		_USBCheckStdRequest
  6791 ;;		_USBStdFeatureReqHandler
  6792 ;; This function uses a non-reentrant model
  6793 ;;
  6794                           
  6795                           	psect	text30
  6796  002A18                     __ptext30:
  6797                           	opt stack 0
  6798  002A18                     _USER_USB_CALLBACK_EVENT_HANDLER:
  6799                           	opt stack 20
  6800                           
  6801                           ;main.c: 217: switch( (int) event )
  6802                           
  6803                           ;incstack = 0
  6804  002A18  D00F               	goto	i2l2995
  6805  002A1A                     i2l2983:
  6806                           
  6807                           ;main.c: 225: APP_LEDUpdateUSBStatus();
  6808  002A1A  ECCC  F014         	call	_APP_LEDUpdateUSBStatus	;wreg free
  6809                           
  6810                           ;main.c: 226: break;
  6811  002A1E  0012               	return	
  6812  002A20                     i2l2985:
  6813                           
  6814                           ;main.c: 230: APP_LEDUpdateUSBStatus();
  6815  002A20  ECCC  F014         	call	_APP_LEDUpdateUSBStatus	;wreg free
  6816                           
  6817                           ;main.c: 231: break;
  6818  002A24  0012               	return	
  6819  002A26                     i2l2987:
  6820                           
  6821                           ;main.c: 235: APP_LEDUpdateUSBStatus();
  6822  002A26  ECCC  F014         	call	_APP_LEDUpdateUSBStatus	;wreg free
  6823                           
  6824                           ;main.c: 236: break;
  6825  002A2A  0012               	return	
  6826  002A2C                     i2l2989:
  6827                           
  6828                           ;main.c: 241: APP_DeviceCDCBasicDemoInitialize();
  6829  002A2C  EC13  F017         	call	_APP_DeviceCDCBasicDemoInitialize	;wreg free
  6830                           
  6831                           ;main.c: 245: break;
  6832                           
  6833                           ;main.c: 244: case EVENT_SET_DESCRIPTOR:
  6834                           
  6835                           ;main.c: 242: break;
  6836  002A30  0012               	return	
  6837  002A32                     i2l2991:
  6838                           
  6839                           ;main.c: 250: USBCheckCDCRequest();
  6840  002A32  EC4E  F011         	call	_USBCheckCDCRequest	;wreg free
  6841                           
  6842                           ;main.c: 261: }
  6843                           
  6844                           ;main.c: 260: break;
  6845                           
  6846                           ;main.c: 259: default:
  6847                           
  6848                           ;main.c: 257: break;
  6849                           
  6850                           ;main.c: 256: case EVENT_TRANSFER_TERMINATED:
  6851                           
  6852                           ;main.c: 254: break;
  6853                           
  6854                           ;main.c: 253: case EVENT_BUS_ERROR:
  6855                           
  6856                           ;main.c: 251: break;
  6857  002A36  0012               	return	
  6858  002A38                     i2l2995:
  6859  002A38  C00D  F013         	movff	USER_USB_CALLBACK_EVENT_HANDLER@event,??_USER_USB_CALLBACK_EVENT_HANDLER
  6860  002A3C  C00E  F014         	movff	USER_USB_CALLBACK_EVENT_HANDLER@event+1,??_USER_USB_CALLBACK_EVENT_HANDLER+1
  6861                           
  6862                           ; Switch on 2 bytes has been partitioned into a top level switch of size 1, and 2 sub-sw
      +                          itches
  6863                           ; Switch size 1, requested type "space"
  6864                           ; Number of cases is 2, Range of values is 0 to 127
  6865                           ; switch strategies available:
  6866                           ; Name         Instructions Cycles
  6867                           ; simple_byte            7     4 (average)
  6868                           ;	Chosen strategy is simple_byte
  6869  002A40  5014               	movf	??_USER_USB_CALLBACK_EVENT_HANDLER+1,w,c
  6870  002A42  0A00               	xorlw	0	; case 0
  6871  002A44  B4D8               	btfsc	status,2,c
  6872  002A46  D004               	goto	i2l4607
  6873  002A48  0A7F               	xorlw	127	; case 127
  6874  002A4A  A4D8               	btfss	status,2,c
  6875  002A4C  0012               	return	
  6876  002A4E  D01A               	goto	i2l4609
  6877  002A50                     i2l4607:
  6878                           
  6879                           ; Switch size 1, requested type "space"
  6880                           ; Number of cases is 8, Range of values is 1 to 117
  6881                           ; switch strategies available:
  6882                           ; Name         Instructions Cycles
  6883                           ; simple_byte           25    13 (average)
  6884                           ;	Chosen strategy is simple_byte
  6885  002A50  5013               	movf	??_USER_USB_CALLBACK_EVENT_HANDLER,w,c
  6886  002A52  0A01               	xorlw	1	; case 1
  6887  002A54  B4D8               	btfsc	status,2,c
  6888  002A56  D7EA               	goto	i2l2989
  6889  002A58  0A03               	xorlw	3	; case 2
  6890  002A5A  B4D8               	btfsc	status,2,c
  6891  002A5C  0012               	return	
  6892  002A5E  0A01               	xorlw	1	; case 3
  6893  002A60  B4D8               	btfsc	status,2,c
  6894  002A62  D7E7               	goto	i2l2991
  6895  002A64  0A06               	xorlw	6	; case 5
  6896  002A66  B4D8               	btfsc	status,2,c
  6897  002A68  0012               	return	
  6898  002A6A  0A77               	xorlw	119	; case 114
  6899  002A6C  B4D8               	btfsc	status,2,c
  6900  002A6E  0012               	return	
  6901  002A70  0A01               	xorlw	1	; case 115
  6902  002A72  B4D8               	btfsc	status,2,c
  6903  002A74  D7D2               	goto	i2l2983
  6904  002A76  0A07               	xorlw	7	; case 116
  6905  002A78  B4D8               	btfsc	status,2,c
  6906  002A7A  D7D5               	goto	i2l2987
  6907  002A7C  0A01               	xorlw	1	; case 117
  6908  002A7E  A4D8               	btfss	status,2,c
  6909  002A80  0012               	return	
  6910  002A82  D7CE               	goto	i2l2985
  6911  002A84                     i2l4609:
  6912                           
  6913                           ; Switch size 1, requested type "space"
  6914                           ; Number of cases is 1, Range of values is 255 to 255
  6915                           ; switch strategies available:
  6916                           ; Name         Instructions Cycles
  6917                           ; simple_byte            4     3 (average)
  6918                           ;	Chosen strategy is simple_byte
  6919  002A84  5013               	movf	??_USER_USB_CALLBACK_EVENT_HANDLER,w,c
  6920  002A86  0AFF               	xorlw	255	; case 255
  6921  002A88  0012               	return	
  6922  002A8A                     __end_of_USER_USB_CALLBACK_EVENT_HANDLER:
  6923                           	opt stack 0
  6924                           pclatu	equ	0xFFB
  6925                           pclath	equ	0xFFA
  6926                           tblptru	equ	0xFF8
  6927                           tblptrh	equ	0xFF7
  6928                           tblptrl	equ	0xFF6
  6929                           tablat	equ	0xFF5
  6930                           prodh	equ	0xFF4
  6931                           prodl	equ	0xFF3
  6932                           intcon	equ	0xFF2
  6933                           postinc0	equ	0xFEE
  6934                           fsr0h	equ	0xFEA
  6935                           fsr0l	equ	0xFE9
  6936                           wreg	equ	0xFE8
  6937                           indf1	equ	0xFE7
  6938                           fsr1h	equ	0xFE2
  6939                           fsr1l	equ	0xFE1
  6940                           bsr	equ	0xFE0
  6941                           indf2	equ	0xFDF
  6942                           postinc2	equ	0xFDE
  6943                           postdec2	equ	0xFDD
  6944                           plusw2	equ	0xFDB
  6945                           fsr2h	equ	0xFDA
  6946                           fsr2l	equ	0xFD9
  6947                           status	equ	0xFD8
  6948                           
  6949 ;; *************** function _USBCheckCDCRequest *****************
  6950 ;; Defined at:
  6951 ;;		line 103 in file "usb_device_cdc.c"
  6952 ;; Parameters:    Size  Location     Type
  6953 ;;		None
  6954 ;; Auto vars:     Size  Location     Type
  6955 ;;		None
  6956 ;; Return value:  Size  Location     Type
  6957 ;;                  1    wreg      void 
  6958 ;; Registers used:
  6959 ;;		wreg, status,2, status,0
  6960 ;; Tracked objects:
  6961 ;;		On entry : 0/0
  6962 ;;		On exit  : 0/0
  6963 ;;		Unchanged: 0/0
  6964 ;; Data sizes:     COMRAM   BANK0   BANK1   BANK2   BANK3   BANK4   BANK5   BANK6   BANK7
  6965 ;;      Params:         0       0       0       0       0       0       0       0       0
  6966 ;;      Locals:         0       0       0       0       0       0       0       0       0
  6967 ;;      Temps:          0       0       0       0       0       0       0       0       0
  6968 ;;      Totals:         0       0       0       0       0       0       0       0       0
  6969 ;;Total ram usage:        0 bytes
  6970 ;; Hardware stack levels used:    1
  6971 ;; This function calls:
  6972 ;;		Nothing
  6973 ;; This function is called by:
  6974 ;;		_USER_USB_CALLBACK_EVENT_HANDLER
  6975 ;; This function uses a non-reentrant model
  6976 ;;
  6977                           
  6978                           	psect	text31
  6979  00229C                     __ptext31:
  6980                           	opt stack 0
  6981  00229C                     _USBCheckCDCRequest:
  6982                           	opt stack 23
  6983                           
  6984                           ;usb_device_cdc.c: 108: if(SetupPkt.Recipient != (0x01)) return;
  6985                           
  6986                           ;incstack = 0
  6987  00229C  0104               	movlb	4	; () banked
  6988  00229E  5130               	movf	48,w,b	;volatile
  6989  0022A0  0B1F               	andlw	31
  6990  0022A2  06E8               	decf	wreg,f,c
  6991  0022A4  A4D8               	btfss	status,2,c
  6992  0022A6  0012               	return	
  6993                           
  6994                           ; BSR set to: 4
  6995                           ;usb_device_cdc.c: 113: if(SetupPkt.RequestType != (0x20>>5)) return;
  6996                           
  6997                           ; BSR set to: 4
  6998                           
  6999                           ; BSR set to: 4
  7000  0022A8  0104               	movlb	4	; () banked
  7001  0022AA  3930               	swapf	48,w,b	;volatile
  7002  0022AC  32E8               	rrcf	wreg,f,c
  7003  0022AE  0B03               	andlw	3
  7004  0022B0  06E8               	decf	wreg,f,c
  7005  0022B2  A4D8               	btfss	status,2,c
  7006  0022B4  0012               	return	
  7007                           
  7008                           ; BSR set to: 4
  7009                           ;usb_device_cdc.c: 119: if((SetupPkt.bIntfID != 0x0)&&
  7010                           ;usb_device_cdc.c: 120: (SetupPkt.bIntfID != 0x01)) return;
  7011                           
  7012                           ; BSR set to: 4
  7013                           
  7014                           ; BSR set to: 4
  7015  0022B6  0104               	movlb	4	; () banked
  7016  0022B8  5134               	movf	52,w,b	;volatile
  7017  0022BA  B4D8               	btfsc	status,2,c
  7018  0022BC  D045               	goto	i2l2979
  7019                           
  7020                           ; BSR set to: 4
  7021  0022BE  0104               	movlb	4	; () banked
  7022  0022C0  0534               	decf	52,w,b	;volatile
  7023  0022C2  A4D8               	btfss	status,2,c
  7024  0022C4  0012               	return	
  7025  0022C6  D040               	goto	i2l2979
  7026  0022C8                     i2l2955:
  7027                           
  7028                           ; BSR set to: 4
  7029                           ;usb_device_cdc.c: 127: inPipes[0].pSrc.bRam = (uint8_t*)&dummy_encapsulated_cmd_respons
      +                          e;
  7030  0022C8  0ED8               	movlw	low _dummy_encapsulated_cmd_response
  7031  0022CA  0100               	movlb	0	; () banked
  7032  0022CC  6F72               	movwf	_inPipes& (0+255),b	;volatile
  7033  0022CE  0E00               	movlw	high _dummy_encapsulated_cmd_response
  7034  0022D0  0100               	movlb	0	; () banked
  7035  0022D2  6F73               	movwf	(_inPipes+1)& (0+255),b	;volatile
  7036                           
  7037                           ; BSR set to: 0
  7038                           ;usb_device_cdc.c: 128: inPipes[0].wCount.Val = 0x08;
  7039  0022D4  0E00               	movlw	0
  7040  0022D6  0100               	movlb	0	; () banked
  7041  0022D8  6F77               	movwf	(_inPipes+5)& (0+255),b	;volatile
  7042  0022DA  0E08               	movlw	8
  7043  0022DC  6F76               	movwf	(_inPipes+4)& (0+255),b	;volatile
  7044                           
  7045                           ; BSR set to: 0
  7046                           ;usb_device_cdc.c: 129: inPipes[0].info.bits.ctrl_trf_mem = 0x01;
  7047  0022DE  0100               	movlb	0	; () banked
  7048  0022E0  8175               	bsf	(_inPipes+3)& (0+255),0,b	;volatile
  7049                           
  7050                           ; BSR set to: 0
  7051                           ;usb_device_cdc.c: 130: inPipes[0].info.bits.busy = 1;
  7052  0022E2  0100               	movlb	0	; () banked
  7053  0022E4  8F75               	bsf	(_inPipes+3)& (0+255),7,b	;volatile
  7054                           
  7055                           ;usb_device_cdc.c: 131: break;
  7056  0022E6  0012               	return	
  7057  0022E8                     i2l2963:
  7058                           
  7059                           ;usb_device_cdc.c: 134: inPipes[0].pSrc.bRam = (uint8_t*)&dummy_encapsulated_cmd_respons
      +                          e;
  7060  0022E8  0ED8               	movlw	low _dummy_encapsulated_cmd_response
  7061  0022EA  0100               	movlb	0	; () banked
  7062  0022EC  6F72               	movwf	_inPipes& (0+255),b	;volatile
  7063  0022EE  0E00               	movlw	high _dummy_encapsulated_cmd_response
  7064  0022F0  0100               	movlb	0	; () banked
  7065  0022F2  6F73               	movwf	(_inPipes+1)& (0+255),b	;volatile
  7066                           
  7067                           ; BSR set to: 0
  7068                           ;usb_device_cdc.c: 135: inPipes[0].info.bits.busy = 1;
  7069  0022F4  0100               	movlb	0	; () banked
  7070  0022F6  8F75               	bsf	(_inPipes+3)& (0+255),7,b	;volatile
  7071                           
  7072                           ;usb_device_cdc.c: 136: break;
  7073  0022F8  0012               	return	
  7074  0022FA                     i2l666:
  7075                           
  7076                           ; BSR set to: 4
  7077                           ;usb_device_cdc.c: 141: outPipes[0].wCount.Val = SetupPkt.wLength;
  7078  0022FA  C436 F06E          	movff	1078,_outPipes+4	;volatile
  7079  0022FE  C437 F06F          	movff	1079,_outPipes+5	;volatile
  7080                           
  7081                           ; BSR set to: 4
  7082                           ;usb_device_cdc.c: 142: outPipes[0].pDst.bRam = (uint8_t*)&line_coding._byte[0];
  7083  002302  0E49               	movlw	low _line_coding
  7084  002304  0100               	movlb	0	; () banked
  7085  002306  6F6A               	movwf	_outPipes& (0+255),b	;volatile
  7086  002308  0E00               	movlw	high _line_coding
  7087  00230A  0100               	movlb	0	; () banked
  7088  00230C  6F6B               	movwf	(_outPipes+1)& (0+255),b	;volatile
  7089                           
  7090                           ;usb_device_cdc.c: 143: outPipes[0].pFunc = (0);
  7091  00230E  0E00               	movlw	0
  7092  002310  0100               	movlb	0	; () banked
  7093  002312  6F70               	movwf	(_outPipes+6)& (0+255),b	;volatile
  7094  002314  0E00               	movlw	0
  7095  002316  0100               	movlb	0	; () banked
  7096  002318  6F71               	movwf	(_outPipes+7)& (0+255),b	;volatile
  7097                           
  7098                           ; BSR set to: 0
  7099                           ;usb_device_cdc.c: 144: outPipes[0].info.bits.busy = 1;
  7100  00231A  0100               	movlb	0	; () banked
  7101  00231C  8F6D               	bsf	(_outPipes+3)& (0+255),7,b	;volatile
  7102                           
  7103                           ;usb_device_cdc.c: 145: break;
  7104  00231E  0012               	return	
  7105  002320                     i2l2971:
  7106                           
  7107                           ;usb_device_cdc.c: 148: { inPipes[0].pSrc.bRam = (uint8_t*)&line_coding; inPipes[0].wCou
      +                          nt.Val = 0x07; inPipes[0].info.Val = 0x40 | 0x80 | 0x01; };
  7108  002320  0E49               	movlw	low _line_coding
  7109  002322  0100               	movlb	0	; () banked
  7110  002324  6F72               	movwf	_inPipes& (0+255),b	;volatile
  7111  002326  0E00               	movlw	high _line_coding
  7112  002328  0100               	movlb	0	; () banked
  7113  00232A  6F73               	movwf	(_inPipes+1)& (0+255),b	;volatile
  7114                           
  7115                           ; BSR set to: 0
  7116  00232C  0E00               	movlw	0
  7117  00232E  0100               	movlb	0	; () banked
  7118  002330  6F77               	movwf	(_inPipes+5)& (0+255),b	;volatile
  7119  002332  0E07               	movlw	7
  7120  002334  6F76               	movwf	(_inPipes+4)& (0+255),b	;volatile
  7121                           
  7122                           ; BSR set to: 0
  7123  002336  0EC1               	movlw	193
  7124  002338  0100               	movlb	0	; () banked
  7125  00233A  6F75               	movwf	(_inPipes+3)& (0+255),b	;volatile
  7126                           
  7127                           ;usb_device_cdc.c: 152: break;
  7128  00233C  0012               	return	
  7129  00233E                     i2l668:
  7130                           
  7131                           ; BSR set to: 4
  7132                           ;usb_device_cdc.c: 155: control_signal_bitmap._byte = (uint8_t)SetupPkt.wValue;
  7133  00233E  C432 F044          	movff	1074,_control_signal_bitmap	;volatile
  7134                           
  7135                           ;usb_device_cdc.c: 187: inPipes[0].info.bits.busy = 1;
  7136  002342  0100               	movlb	0	; () banked
  7137  002344  8F75               	bsf	(_inPipes+3)& (0+255),7,b	;volatile
  7138                           
  7139                           ; BSR set to: 0
  7140                           ;usb_device_cdc.c: 214: }
  7141                           
  7142                           ; BSR set to: 0
  7143                           ;usb_device_cdc.c: 213: break;
  7144                           
  7145                           ;usb_device_cdc.c: 212: default:
  7146                           
  7147                           ;usb_device_cdc.c: 188: break;
  7148  002346  0012               	return	
  7149  002348                     i2l2979:
  7150  002348  0104               	movlb	4	; () banked
  7151  00234A  5131               	movf	49,w,b	;volatile
  7152                           
  7153                           ; Switch size 1, requested type "space"
  7154                           ; Number of cases is 5, Range of values is 0 to 34
  7155                           ; switch strategies available:
  7156                           ; Name         Instructions Cycles
  7157                           ; simple_byte           16     9 (average)
  7158                           ;	Chosen strategy is simple_byte
  7159  00234C  0A00               	xorlw	0	; case 0
  7160  00234E  B4D8               	btfsc	status,2,c
  7161  002350  D7BB               	goto	i2l2955
  7162  002352  0A01               	xorlw	1	; case 1
  7163  002354  B4D8               	btfsc	status,2,c
  7164  002356  D7C8               	goto	i2l2963
  7165  002358  0A21               	xorlw	33	; case 32
  7166  00235A  B4D8               	btfsc	status,2,c
  7167  00235C  D7CE               	goto	i2l666
  7168  00235E  0A01               	xorlw	1	; case 33
  7169  002360  B4D8               	btfsc	status,2,c
  7170  002362  D7DE               	goto	i2l2971
  7171  002364  0A03               	xorlw	3	; case 34
  7172  002366  A4D8               	btfss	status,2,c
  7173  002368  0012               	return	
  7174  00236A  D7E9               	goto	i2l668
  7175  00236C                     __end_of_USBCheckCDCRequest:
  7176                           	opt stack 0
  7177                           pclatu	equ	0xFFB
  7178                           pclath	equ	0xFFA
  7179                           tblptru	equ	0xFF8
  7180                           tblptrh	equ	0xFF7
  7181                           tblptrl	equ	0xFF6
  7182                           tablat	equ	0xFF5
  7183                           prodh	equ	0xFF4
  7184                           prodl	equ	0xFF3
  7185                           intcon	equ	0xFF2
  7186                           postinc0	equ	0xFEE
  7187                           fsr0h	equ	0xFEA
  7188                           fsr0l	equ	0xFE9
  7189                           wreg	equ	0xFE8
  7190                           indf1	equ	0xFE7
  7191                           fsr1h	equ	0xFE2
  7192                           fsr1l	equ	0xFE1
  7193                           bsr	equ	0xFE0
  7194                           indf2	equ	0xFDF
  7195                           postinc2	equ	0xFDE
  7196                           postdec2	equ	0xFDD
  7197                           plusw2	equ	0xFDB
  7198                           fsr2h	equ	0xFDA
  7199                           fsr2l	equ	0xFD9
  7200                           status	equ	0xFD8
  7201                           
  7202 ;; *************** function _APP_LEDUpdateUSBStatus *****************
  7203 ;; Defined at:
  7204 ;;		line 75 in file "app_led_usb_status.c"
  7205 ;; Parameters:    Size  Location     Type
  7206 ;;		None
  7207 ;; Auto vars:     Size  Location     Type
  7208 ;;		None
  7209 ;; Return value:  Size  Location     Type
  7210 ;;                  1    wreg      void 
  7211 ;; Registers used:
  7212 ;;		wreg, status,2, status,0, cstack
  7213 ;; Tracked objects:
  7214 ;;		On entry : 0/0
  7215 ;;		On exit  : 0/0
  7216 ;;		Unchanged: 0/0
  7217 ;; Data sizes:     COMRAM   BANK0   BANK1   BANK2   BANK3   BANK4   BANK5   BANK6   BANK7
  7218 ;;      Params:         0       0       0       0       0       0       0       0       0
  7219 ;;      Locals:         0       0       0       0       0       0       0       0       0
  7220 ;;      Temps:          0       0       0       0       0       0       0       0       0
  7221 ;;      Totals:         0       0       0       0       0       0       0       0       0
  7222 ;;Total ram usage:        0 bytes
  7223 ;; Hardware stack levels used:    1
  7224 ;; Hardware stack levels required when called:    1
  7225 ;; This function calls:
  7226 ;;		_LED_Off
  7227 ;;		_LED_On
  7228 ;; This function is called by:
  7229 ;;		_USER_USB_CALLBACK_EVENT_HANDLER
  7230 ;; This function uses a non-reentrant model
  7231 ;;
  7232                           
  7233                           	psect	text32
  7234  002998                     __ptext32:
  7235                           	opt stack 0
  7236  002998                     _APP_LEDUpdateUSBStatus:
  7237                           	opt stack 22
  7238                           
  7239                           ;app_led_usb_status.c: 77: static uint16_t ledCount = 0;
  7240                           ;app_led_usb_status.c: 79: if(UCONbits.SUSPND == 1)
  7241                           
  7242                           ;incstack = 0
  7243  002998  A26D               	btfss	3949,1,c	;volatile
  7244  00299A  D036               	goto	i2l2927
  7245                           
  7246                           ;app_led_usb_status.c: 80: {
  7247                           ;app_led_usb_status.c: 81: LED_Off(LED_D1);
  7248  00299C  0E01               	movlw	1
  7249  00299E  EC02  F017         	call	_LED_Off
  7250                           
  7251                           ;app_led_usb_status.c: 82: return;
  7252  0029A2  0012               	return	
  7253  0029A4                     i2l2901:
  7254                           
  7255                           ;app_led_usb_status.c: 90: if(ledCount == 1)
  7256  0029A4  0431               	decf	APP_LEDUpdateUSBStatus@ledCount,w,c
  7257  0029A6  1032               	iorwf	APP_LEDUpdateUSBStatus@ledCount+1,w,c
  7258  0029A8  A4D8               	btfss	status,2,c
  7259  0029AA  D004               	goto	i2l2905
  7260                           
  7261                           ;app_led_usb_status.c: 91: {
  7262                           ;app_led_usb_status.c: 92: LED_On(LED_D1);
  7263  0029AC  0E01               	movlw	1
  7264  0029AE  ECF1  F016         	call	_LED_On
  7265                           
  7266                           ;app_led_usb_status.c: 93: }
  7267  0029B2  D02F               	goto	i2l2929
  7268  0029B4                     i2l2905:
  7269                           
  7270                           ;app_led_usb_status.c: 94: else if(ledCount == 75)
  7271  0029B4  0E4B               	movlw	75
  7272  0029B6  1831               	xorwf	APP_LEDUpdateUSBStatus@ledCount,w,c
  7273  0029B8  1032               	iorwf	APP_LEDUpdateUSBStatus@ledCount+1,w,c
  7274  0029BA  A4D8               	btfss	status,2,c
  7275  0029BC  D004               	goto	i2l2909
  7276                           
  7277                           ;app_led_usb_status.c: 95: {
  7278                           ;app_led_usb_status.c: 96: LED_Off(LED_D1);
  7279  0029BE  0E01               	movlw	1
  7280  0029C0  EC02  F017         	call	_LED_Off
  7281                           
  7282                           ;app_led_usb_status.c: 97: }
  7283  0029C4  D026               	goto	i2l2929
  7284  0029C6                     i2l2909:
  7285                           
  7286                           ;app_led_usb_status.c: 98: else if(ledCount > 150)
  7287  0029C6  5032               	movf	APP_LEDUpdateUSBStatus@ledCount+1,w,c
  7288  0029C8  E104               	bnz	i2u179_40
  7289  0029CA  0E97               	movlw	151
  7290  0029CC  5C31               	subwf	APP_LEDUpdateUSBStatus@ledCount,w,c
  7291  0029CE  A0D8               	btfss	status,0,c
  7292  0029D0  D020               	goto	i2l2929
  7293  0029D2                     i2u179_40:
  7294                           
  7295                           ;app_led_usb_status.c: 99: {
  7296                           ;app_led_usb_status.c: 100: ledCount = 0;
  7297  0029D2  0E00               	movlw	0
  7298  0029D4  6E32               	movwf	APP_LEDUpdateUSBStatus@ledCount+1,c
  7299  0029D6  0E00               	movlw	0
  7300  0029D8  6E31               	movwf	APP_LEDUpdateUSBStatus@ledCount,c
  7301                           
  7302                           ;app_led_usb_status.c: 101: }
  7303                           ;app_led_usb_status.c: 102: break;
  7304  0029DA  D01B               	goto	i2l2929
  7305  0029DC                     i2l2913:
  7306                           
  7307                           ;app_led_usb_status.c: 107: if(ledCount == 1)
  7308  0029DC  0431               	decf	APP_LEDUpdateUSBStatus@ledCount,w,c
  7309  0029DE  1032               	iorwf	APP_LEDUpdateUSBStatus@ledCount+1,w,c
  7310  0029E0  A4D8               	btfss	status,2,c
  7311  0029E2  D004               	goto	i2l2917
  7312                           
  7313                           ;app_led_usb_status.c: 108: {
  7314                           ;app_led_usb_status.c: 109: LED_On(LED_D1);
  7315  0029E4  0E01               	movlw	1
  7316  0029E6  ECF1  F016         	call	_LED_On
  7317                           
  7318                           ;app_led_usb_status.c: 110: }
  7319  0029EA  D013               	goto	i2l2929
  7320  0029EC                     i2l2917:
  7321                           
  7322                           ;app_led_usb_status.c: 111: else if(ledCount == 50)
  7323  0029EC  0E32               	movlw	50
  7324  0029EE  1831               	xorwf	APP_LEDUpdateUSBStatus@ledCount,w,c
  7325  0029F0  1032               	iorwf	APP_LEDUpdateUSBStatus@ledCount+1,w,c
  7326  0029F2  A4D8               	btfss	status,2,c
  7327  0029F4  D004               	goto	i2l2921
  7328                           
  7329                           ;app_led_usb_status.c: 112: {
  7330                           ;app_led_usb_status.c: 113: LED_Off(LED_D1);
  7331  0029F6  0E01               	movlw	1
  7332  0029F8  EC02  F017         	call	_LED_Off
  7333                           
  7334                           ;app_led_usb_status.c: 114: }
  7335  0029FC  D00A               	goto	i2l2929
  7336  0029FE                     i2l2921:
  7337                           
  7338                           ;app_led_usb_status.c: 115: else if(ledCount > 950)
  7339  0029FE  0EB7               	movlw	183
  7340  002A00  5C31               	subwf	APP_LEDUpdateUSBStatus@ledCount,w,c
  7341  002A02  0E03               	movlw	3
  7342  002A04  5832               	subwfb	APP_LEDUpdateUSBStatus@ledCount+1,w,c
  7343  002A06  D7E3               	goto	L12
  7344  002A08                     i2l2927:
  7345  002A08  503F               	movf	_USBDeviceState,w,c	;volatile
  7346                           
  7347                           ; Switch size 1, requested type "space"
  7348                           ; Number of cases is 1, Range of values is 32 to 32
  7349                           ; switch strategies available:
  7350                           ; Name         Instructions Cycles
  7351                           ; simple_byte            4     3 (average)
  7352                           ;	Chosen strategy is simple_byte
  7353  002A0A  0A20               	xorlw	32	; case 32
  7354  002A0C  B4D8               	btfsc	status,2,c
  7355  002A0E  D7CA               	goto	i2l2901
  7356  002A10  D7E5               	goto	i2l2913
  7357  002A12                     i2l2929:
  7358                           
  7359                           ;app_led_usb_status.c: 123: ledCount++;
  7360  002A12  4A31               	infsnz	APP_LEDUpdateUSBStatus@ledCount,f,c
  7361  002A14  2A32               	incf	APP_LEDUpdateUSBStatus@ledCount+1,f,c
  7362  002A16  0012               	return		;funcret
  7363  002A18                     __end_of_APP_LEDUpdateUSBStatus:
  7364                           	opt stack 0
  7365                           pclatu	equ	0xFFB
  7366                           pclath	equ	0xFFA
  7367                           tblptru	equ	0xFF8
  7368                           tblptrh	equ	0xFF7
  7369                           tblptrl	equ	0xFF6
  7370                           tablat	equ	0xFF5
  7371                           prodh	equ	0xFF4
  7372                           prodl	equ	0xFF3
  7373                           intcon	equ	0xFF2
  7374                           postinc0	equ	0xFEE
  7375                           fsr0h	equ	0xFEA
  7376                           fsr0l	equ	0xFE9
  7377                           wreg	equ	0xFE8
  7378                           indf1	equ	0xFE7
  7379                           fsr1h	equ	0xFE2
  7380                           fsr1l	equ	0xFE1
  7381                           bsr	equ	0xFE0
  7382                           indf2	equ	0xFDF
  7383                           postinc2	equ	0xFDE
  7384                           postdec2	equ	0xFDD
  7385                           plusw2	equ	0xFDB
  7386                           fsr2h	equ	0xFDA
  7387                           fsr2l	equ	0xFD9
  7388                           status	equ	0xFD8
  7389                           
  7390 ;; *************** function _LED_On *****************
  7391 ;; Defined at:
  7392 ;;		line 96 in file "leds.c"
  7393 ;; Parameters:    Size  Location     Type
  7394 ;;  led             1    wreg     enum E2
  7395 ;; Auto vars:     Size  Location     Type
  7396 ;;  led             1    0[COMRAM] enum E2
  7397 ;; Return value:  Size  Location     Type
  7398 ;;                  1    wreg      void 
  7399 ;; Registers used:
  7400 ;;		wreg, status,2, status,0
  7401 ;; Tracked objects:
  7402 ;;		On entry : 0/0
  7403 ;;		On exit  : 0/0
  7404 ;;		Unchanged: 0/0
  7405 ;; Data sizes:     COMRAM   BANK0   BANK1   BANK2   BANK3   BANK4   BANK5   BANK6   BANK7
  7406 ;;      Params:         0       0       0       0       0       0       0       0       0
  7407 ;;      Locals:         1       0       0       0       0       0       0       0       0
  7408 ;;      Temps:          0       0       0       0       0       0       0       0       0
  7409 ;;      Totals:         1       0       0       0       0       0       0       0       0
  7410 ;;Total ram usage:        1 bytes
  7411 ;; Hardware stack levels used:    1
  7412 ;; This function calls:
  7413 ;;		Nothing
  7414 ;; This function is called by:
  7415 ;;		_APP_LEDUpdateUSBStatus
  7416 ;; This function uses a non-reentrant model
  7417 ;;
  7418                           
  7419                           	psect	text33
  7420  002DE2                     __ptext33:
  7421                           	opt stack 0
  7422  002DE2                     _LED_On:
  7423                           	opt stack 22
  7424                           
  7425                           ;incstack = 0
  7426                           ;LED_On@led stored from wreg
  7427  002DE2  6E01               	movwf	LED_On@led,c
  7428                           
  7429                           ;leds.c: 98: switch(led)
  7430  002DE4  D004               	goto	i2l2881
  7431  002DE6                     i2l194:
  7432                           
  7433                           ;leds.c: 101: LATBbits.LATB0 = 1;
  7434  002DE6  808A               	bsf	3978,0,c	;volatile
  7435                           
  7436                           ;leds.c: 102: break;
  7437  002DE8  0012               	return	
  7438  002DEA                     i2l196:
  7439                           
  7440                           ;leds.c: 105: LATBbits.LATB1 = 1;
  7441  002DEA  828A               	bsf	3978,1,c	;volatile
  7442                           
  7443                           ;leds.c: 118: }
  7444                           
  7445                           ;leds.c: 117: break;
  7446                           
  7447                           ;leds.c: 116: case LED_NONE:
  7448                           
  7449                           ;leds.c: 106: break;
  7450  002DEC  0012               	return	
  7451  002DEE                     i2l2881:
  7452  002DEE  5001               	movf	LED_On@led,w,c
  7453                           
  7454                           ; Switch size 1, requested type "space"
  7455                           ; Number of cases is 3, Range of values is 0 to 2
  7456                           ; switch strategies available:
  7457                           ; Name         Instructions Cycles
  7458                           ; simple_byte           10     6 (average)
  7459                           ;	Chosen strategy is simple_byte
  7460  002DF0  0A00               	xorlw	0	; case 0
  7461  002DF2  B4D8               	btfsc	status,2,c
  7462  002DF4  0012               	return	
  7463  002DF6  0A01               	xorlw	1	; case 1
  7464  002DF8  B4D8               	btfsc	status,2,c
  7465  002DFA  D7F5               	goto	i2l194
  7466  002DFC  0A03               	xorlw	3	; case 2
  7467  002DFE  A4D8               	btfss	status,2,c
  7468  002E00  0012               	return	
  7469  002E02  D7F3               	goto	i2l196
  7470  002E04                     __end_of_LED_On:
  7471                           	opt stack 0
  7472                           pclatu	equ	0xFFB
  7473                           pclath	equ	0xFFA
  7474                           tblptru	equ	0xFF8
  7475                           tblptrh	equ	0xFF7
  7476                           tblptrl	equ	0xFF6
  7477                           tablat	equ	0xFF5
  7478                           prodh	equ	0xFF4
  7479                           prodl	equ	0xFF3
  7480                           intcon	equ	0xFF2
  7481                           postinc0	equ	0xFEE
  7482                           fsr0h	equ	0xFEA
  7483                           fsr0l	equ	0xFE9
  7484                           wreg	equ	0xFE8
  7485                           indf1	equ	0xFE7
  7486                           fsr1h	equ	0xFE2
  7487                           fsr1l	equ	0xFE1
  7488                           bsr	equ	0xFE0
  7489                           indf2	equ	0xFDF
  7490                           postinc2	equ	0xFDE
  7491                           postdec2	equ	0xFDD
  7492                           plusw2	equ	0xFDB
  7493                           fsr2h	equ	0xFDA
  7494                           fsr2l	equ	0xFD9
  7495                           status	equ	0xFD8
  7496                           
  7497 ;; *************** function _LED_Off *****************
  7498 ;; Defined at:
  7499 ;;		line 137 in file "leds.c"
  7500 ;; Parameters:    Size  Location     Type
  7501 ;;  led             1    wreg     enum E2
  7502 ;; Auto vars:     Size  Location     Type
  7503 ;;  led             1    0[COMRAM] enum E2
  7504 ;; Return value:  Size  Location     Type
  7505 ;;                  1    wreg      void 
  7506 ;; Registers used:
  7507 ;;		wreg, status,2, status,0
  7508 ;; Tracked objects:
  7509 ;;		On entry : 0/0
  7510 ;;		On exit  : 0/0
  7511 ;;		Unchanged: 0/0
  7512 ;; Data sizes:     COMRAM   BANK0   BANK1   BANK2   BANK3   BANK4   BANK5   BANK6   BANK7
  7513 ;;      Params:         0       0       0       0       0       0       0       0       0
  7514 ;;      Locals:         1       0       0       0       0       0       0       0       0
  7515 ;;      Temps:          0       0       0       0       0       0       0       0       0
  7516 ;;      Totals:         1       0       0       0       0       0       0       0       0
  7517 ;;Total ram usage:        1 bytes
  7518 ;; Hardware stack levels used:    1
  7519 ;; This function calls:
  7520 ;;		Nothing
  7521 ;; This function is called by:
  7522 ;;		_APP_LEDUpdateUSBStatus
  7523 ;; This function uses a non-reentrant model
  7524 ;;
  7525                           
  7526                           	psect	text34
  7527  002E04                     __ptext34:
  7528                           	opt stack 0
  7529  002E04                     _LED_Off:
  7530                           	opt stack 22
  7531                           
  7532                           ;incstack = 0
  7533                           ;LED_Off@led stored from wreg
  7534  002E04  6E01               	movwf	LED_Off@led,c
  7535                           
  7536                           ;leds.c: 139: switch(led)
  7537  002E06  D004               	goto	i2l2875
  7538  002E08                     i2l202:
  7539                           
  7540                           ;leds.c: 142: LATBbits.LATB0 = 0;
  7541  002E08  908A               	bcf	3978,0,c	;volatile
  7542                           
  7543                           ;leds.c: 143: break;
  7544  002E0A  0012               	return	
  7545  002E0C                     i2l204:
  7546                           
  7547                           ;leds.c: 146: LATBbits.LATB1 = 0;
  7548  002E0C  928A               	bcf	3978,1,c	;volatile
  7549                           
  7550                           ;leds.c: 159: }
  7551                           
  7552                           ;leds.c: 158: break;
  7553                           
  7554                           ;leds.c: 157: case LED_NONE:
  7555                           
  7556                           ;leds.c: 147: break;
  7557  002E0E  0012               	return	
  7558  002E10                     i2l2875:
  7559  002E10  5001               	movf	LED_Off@led,w,c
  7560                           
  7561                           ; Switch size 1, requested type "space"
  7562                           ; Number of cases is 3, Range of values is 0 to 2
  7563                           ; switch strategies available:
  7564                           ; Name         Instructions Cycles
  7565                           ; simple_byte           10     6 (average)
  7566                           ;	Chosen strategy is simple_byte
  7567  002E12  0A00               	xorlw	0	; case 0
  7568  002E14  B4D8               	btfsc	status,2,c
  7569  002E16  0012               	return	
  7570  002E18  0A01               	xorlw	1	; case 1
  7571  002E1A  B4D8               	btfsc	status,2,c
  7572  002E1C  D7F5               	goto	i2l202
  7573  002E1E  0A03               	xorlw	3	; case 2
  7574  002E20  A4D8               	btfss	status,2,c
  7575  002E22  0012               	return	
  7576  002E24  D7F3               	goto	i2l204
  7577  002E26                     __end_of_LED_Off:
  7578                           	opt stack 0
  7579                           pclatu	equ	0xFFB
  7580                           pclath	equ	0xFFA
  7581                           tblptru	equ	0xFF8
  7582                           tblptrh	equ	0xFF7
  7583                           tblptrl	equ	0xFF6
  7584                           tablat	equ	0xFF5
  7585                           prodh	equ	0xFF4
  7586                           prodl	equ	0xFF3
  7587                           intcon	equ	0xFF2
  7588                           postinc0	equ	0xFEE
  7589                           fsr0h	equ	0xFEA
  7590                           fsr0l	equ	0xFE9
  7591                           wreg	equ	0xFE8
  7592                           indf1	equ	0xFE7
  7593                           fsr1h	equ	0xFE2
  7594                           fsr1l	equ	0xFE1
  7595                           bsr	equ	0xFE0
  7596                           indf2	equ	0xFDF
  7597                           postinc2	equ	0xFDE
  7598                           postdec2	equ	0xFDD
  7599                           plusw2	equ	0xFDB
  7600                           fsr2h	equ	0xFDA
  7601                           fsr2l	equ	0xFD9
  7602                           status	equ	0xFD8
  7603                           
  7604 ;; *************** function _APP_DeviceCDCBasicDemoInitialize *****************
  7605 ;; Defined at:
  7606 ;;		line 203 in file "main.c"
  7607 ;; Parameters:    Size  Location     Type
  7608 ;;		None
  7609 ;; Auto vars:     Size  Location     Type
  7610 ;;		None
  7611 ;; Return value:  Size  Location     Type
  7612 ;;                  1    wreg      void 
  7613 ;; Registers used:
  7614 ;;		wreg, fsr2l, fsr2h, status,2, status,0, prodl, prodh, cstack
  7615 ;; Tracked objects:
  7616 ;;		On entry : 0/0
  7617 ;;		On exit  : 0/0
  7618 ;;		Unchanged: 0/0
  7619 ;; Data sizes:     COMRAM   BANK0   BANK1   BANK2   BANK3   BANK4   BANK5   BANK6   BANK7
  7620 ;;      Params:         0       0       0       0       0       0       0       0       0
  7621 ;;      Locals:         0       0       0       0       0       0       0       0       0
  7622 ;;      Temps:          0       0       0       0       0       0       0       0       0
  7623 ;;      Totals:         0       0       0       0       0       0       0       0       0
  7624 ;;Total ram usage:        0 bytes
  7625 ;; Hardware stack levels used:    1
  7626 ;; Hardware stack levels required when called:    3
  7627 ;; This function calls:
  7628 ;;		_CDCInitEP
  7629 ;; This function is called by:
  7630 ;;		_USER_USB_CALLBACK_EVENT_HANDLER
  7631 ;; This function uses a non-reentrant model
  7632 ;;
  7633                           
  7634                           	psect	text35
  7635  002E26                     __ptext35:
  7636                           	opt stack 0
  7637  002E26                     _APP_DeviceCDCBasicDemoInitialize:
  7638                           	opt stack 20
  7639                           
  7640                           ;main.c: 205: CDCInitEP();
  7641                           
  7642                           ;incstack = 0
  7643  002E26  EC45  F015         	call	_CDCInitEP	;wreg free
  7644                           
  7645                           ;main.c: 208: line_coding.bCharFormat = 0;
  7646  002E2A  0E00               	movlw	0
  7647  002E2C  6E4D               	movwf	_line_coding+4,c
  7648                           
  7649                           ;main.c: 209: line_coding.bDataBits = 8;
  7650  002E2E  0E08               	movlw	8
  7651  002E30  6E4F               	movwf	_line_coding+6,c
  7652                           
  7653                           ;main.c: 210: line_coding.bParityType = 0;
  7654  002E32  0E00               	movlw	0
  7655  002E34  6E4E               	movwf	_line_coding+5,c
  7656                           
  7657                           ;main.c: 211: line_coding.dwDTERate = 9600;
  7658  002E36  0E80               	movlw	128
  7659  002E38  6E49               	movwf	_line_coding,c
  7660  002E3A  0E25               	movlw	37
  7661  002E3C  6E4A               	movwf	_line_coding+1,c
  7662  002E3E  0E00               	movlw	0
  7663  002E40  6E4B               	movwf	_line_coding+2,c
  7664  002E42  0E00               	movlw	0
  7665  002E44  6E4C               	movwf	_line_coding+3,c
  7666  002E46  0012               	return		;funcret
  7667  002E48                     __end_of_APP_DeviceCDCBasicDemoInitialize:
  7668                           	opt stack 0
  7669                           pclatu	equ	0xFFB
  7670                           pclath	equ	0xFFA
  7671                           tblptru	equ	0xFF8
  7672                           tblptrh	equ	0xFF7
  7673                           tblptrl	equ	0xFF6
  7674                           tablat	equ	0xFF5
  7675                           prodh	equ	0xFF4
  7676                           prodl	equ	0xFF3
  7677                           intcon	equ	0xFF2
  7678                           postinc0	equ	0xFEE
  7679                           fsr0h	equ	0xFEA
  7680                           fsr0l	equ	0xFE9
  7681                           wreg	equ	0xFE8
  7682                           indf1	equ	0xFE7
  7683                           fsr1h	equ	0xFE2
  7684                           fsr1l	equ	0xFE1
  7685                           bsr	equ	0xFE0
  7686                           indf2	equ	0xFDF
  7687                           postinc2	equ	0xFDE
  7688                           postdec2	equ	0xFDD
  7689                           plusw2	equ	0xFDB
  7690                           fsr2h	equ	0xFDA
  7691                           fsr2l	equ	0xFD9
  7692                           status	equ	0xFD8
  7693                           
  7694 ;; *************** function _CDCInitEP *****************
  7695 ;; Defined at:
  7696 ;;		line 250 in file "usb_device_cdc.c"
  7697 ;; Parameters:    Size  Location     Type
  7698 ;;		None
  7699 ;; Auto vars:     Size  Location     Type
  7700 ;;		None
  7701 ;; Return value:  Size  Location     Type
  7702 ;;                  1    wreg      void 
  7703 ;; Registers used:
  7704 ;;		wreg, fsr2l, fsr2h, status,2, status,0, prodl, prodh, cstack
  7705 ;; Tracked objects:
  7706 ;;		On entry : 0/0
  7707 ;;		On exit  : 0/0
  7708 ;;		Unchanged: 0/0
  7709 ;; Data sizes:     COMRAM   BANK0   BANK1   BANK2   BANK3   BANK4   BANK5   BANK6   BANK7
  7710 ;;      Params:         0       0       0       0       0       0       0       0       0
  7711 ;;      Locals:         0       0       0       0       0       0       0       0       0
  7712 ;;      Temps:          0       0       0       0       0       0       0       0       0
  7713 ;;      Totals:         0       0       0       0       0       0       0       0       0
  7714 ;;Total ram usage:        0 bytes
  7715 ;; Hardware stack levels used:    1
  7716 ;; Hardware stack levels required when called:    2
  7717 ;; This function calls:
  7718 ;;		_USBEnableEndpoint
  7719 ;;		i2_USBTransferOnePacket
  7720 ;; This function is called by:
  7721 ;;		_APP_DeviceCDCBasicDemoInitialize
  7722 ;; This function uses a non-reentrant model
  7723 ;;
  7724                           
  7725                           	psect	text36
  7726  002A8A                     __ptext36:
  7727                           	opt stack 0
  7728  002A8A                     _CDCInitEP:
  7729                           	opt stack 20
  7730                           
  7731                           ;usb_device_cdc.c: 253: line_coding.dwDTERate = 19200;
  7732                           
  7733                           ;incstack = 0
  7734  002A8A  0E00               	movlw	0
  7735  002A8C  6E49               	movwf	_line_coding,c
  7736  002A8E  0E4B               	movlw	75
  7737  002A90  6E4A               	movwf	_line_coding+1,c
  7738  002A92  0E00               	movlw	0
  7739  002A94  6E4B               	movwf	_line_coding+2,c
  7740  002A96  0E00               	movlw	0
  7741  002A98  6E4C               	movwf	_line_coding+3,c
  7742                           
  7743                           ;usb_device_cdc.c: 254: line_coding.bCharFormat = 0x00;
  7744  002A9A  0E00               	movlw	0
  7745  002A9C  6E4D               	movwf	_line_coding+4,c
  7746                           
  7747                           ;usb_device_cdc.c: 255: line_coding.bParityType = 0x00;
  7748  002A9E  0E00               	movlw	0
  7749  002AA0  6E4E               	movwf	_line_coding+5,c
  7750                           
  7751                           ;usb_device_cdc.c: 256: line_coding.bDataBits = 0x08;
  7752  002AA2  0E08               	movlw	8
  7753  002AA4  6E4F               	movwf	_line_coding+6,c
  7754                           
  7755                           ;usb_device_cdc.c: 258: cdc_rx_len = 0;
  7756  002AA6  0E00               	movlw	0
  7757  002AA8  0100               	movlb	0	; () banked
  7758  002AAA  6F95               	movwf	_cdc_rx_len& (0+255),b
  7759                           
  7760                           ; BSR set to: 0
  7761                           ;usb_device_cdc.c: 271: USBEnableEndpoint(1,0x02|0x10|0x08);
  7762  002AAC  0E1A               	movlw	26
  7763  002AAE  6E09               	movwf	USBEnableEndpoint@options,c
  7764  002AB0  0E01               	movlw	1
  7765  002AB2  ECC8  F015         	call	_USBEnableEndpoint
  7766                           
  7767                           ;usb_device_cdc.c: 272: USBEnableEndpoint(2,0x02|0x04|0x10|0x08);
  7768  002AB6  0E1E               	movlw	30
  7769  002AB8  6E09               	movwf	USBEnableEndpoint@options,c
  7770  002ABA  0E02               	movlw	2
  7771  002ABC  ECC8  F015         	call	_USBEnableEndpoint
  7772                           
  7773                           ;usb_device_cdc.c: 274: CDCDataOutHandle = USBTransferOnePacket(2,0,(uint8_t*)&cdc_data_
      +                          rx,sizeof(cdc_data_rx));
  7774  002AC0  0E00               	movlw	0
  7775  002AC2  6E01               	movwf	i2USBTransferOnePacket@dir,c
  7776  002AC4  0E40               	movlw	64
  7777  002AC6  6E02               	movwf	i2USBTransferOnePacket@data,c
  7778  002AC8  0E05               	movlw	5
  7779  002ACA  6E03               	movwf	i2USBTransferOnePacket@data+1,c
  7780  002ACC  0E40               	movlw	64
  7781  002ACE  6E04               	movwf	i2USBTransferOnePacket@len,c
  7782  002AD0  0E02               	movlw	2
  7783  002AD2  EC3D  F013         	call	i2_USBTransferOnePacket
  7784  002AD6  C001  F092         	movff	?i2_USBTransferOnePacket,_CDCDataOutHandle
  7785  002ADA  C002  F093         	movff	?i2_USBTransferOnePacket+1,_CDCDataOutHandle+1
  7786                           
  7787                           ;usb_device_cdc.c: 275: CDCDataInHandle = (0);
  7788  002ADE  0E00               	movlw	0
  7789  002AE0  0100               	movlb	0	; () banked
  7790  002AE2  6F90               	movwf	_CDCDataInHandle& (0+255),b
  7791  002AE4  0E00               	movlw	0
  7792  002AE6  0100               	movlb	0	; () banked
  7793  002AE8  6F91               	movwf	(_CDCDataInHandle+1)& (0+255),b
  7794                           
  7795                           ; BSR set to: 0
  7796                           ;usb_device_cdc.c: 302: cdc_trf_state = 0;
  7797  002AEA  0E00               	movlw	0
  7798  002AEC  0100               	movlb	0	; () banked
  7799  002AEE  6F96               	movwf	_cdc_trf_state& (0+255),b
  7800                           
  7801                           ; BSR set to: 0
  7802  002AF0  0012               	return		;funcret
  7803  002AF2                     __end_of_CDCInitEP:
  7804                           	opt stack 0
  7805                           pclatu	equ	0xFFB
  7806                           pclath	equ	0xFFA
  7807                           tblptru	equ	0xFF8
  7808                           tblptrh	equ	0xFF7
  7809                           tblptrl	equ	0xFF6
  7810                           tablat	equ	0xFF5
  7811                           prodh	equ	0xFF4
  7812                           prodl	equ	0xFF3
  7813                           intcon	equ	0xFF2
  7814                           postinc0	equ	0xFEE
  7815                           fsr0h	equ	0xFEA
  7816                           fsr0l	equ	0xFE9
  7817                           wreg	equ	0xFE8
  7818                           indf1	equ	0xFE7
  7819                           fsr1h	equ	0xFE2
  7820                           fsr1l	equ	0xFE1
  7821                           bsr	equ	0xFE0
  7822                           indf2	equ	0xFDF
  7823                           postinc2	equ	0xFDE
  7824                           postdec2	equ	0xFDD
  7825                           plusw2	equ	0xFDB
  7826                           fsr2h	equ	0xFDA
  7827                           fsr2l	equ	0xFD9
  7828                           status	equ	0xFD8
  7829                           
  7830 ;; *************** function i2_USBTransferOnePacket *****************
  7831 ;; Defined at:
  7832 ;;		line 995 in file "usb_device.c"
  7833 ;; Parameters:    Size  Location     Type
  7834 ;;  ep              1    wreg     unsigned char 
  7835 ;;  dir             1    0[COMRAM] unsigned char 
  7836 ;;  data            2    1[COMRAM] PTR unsigned char 
  7837 ;;		 -> cdc_data_tx(64), cdc_data_rx(64), NULL(0), 
  7838 ;;  len             1    3[COMRAM] unsigned char 
  7839 ;; Auto vars:     Size  Location     Type
  7840 ;;  ep              1    4[COMRAM] unsigned char 
  7841 ;;  USBTransferO    2    5[COMRAM] PTR volatile struct __BD
  7842 ;;		 -> NULL(0), BDT(48), 
  7843 ;; Return value:  Size  Location     Type
  7844 ;;                  2    0[COMRAM] PTR void 
  7845 ;; Registers used:
  7846 ;;		wreg, fsr2l, fsr2h, status,2, status,0, prodl, prodh
  7847 ;; Tracked objects:
  7848 ;;		On entry : 0/0
  7849 ;;		On exit  : 0/0
  7850 ;;		Unchanged: 0/0
  7851 ;; Data sizes:     COMRAM   BANK0   BANK1   BANK2   BANK3   BANK4   BANK5   BANK6   BANK7
  7852 ;;      Params:         4       0       0       0       0       0       0       0       0
  7853 ;;      Locals:         3       0       0       0       0       0       0       0       0
  7854 ;;      Temps:          0       0       0       0       0       0       0       0       0
  7855 ;;      Totals:         7       0       0       0       0       0       0       0       0
  7856 ;;Total ram usage:        7 bytes
  7857 ;; Hardware stack levels used:    1
  7858 ;; This function calls:
  7859 ;;		Nothing
  7860 ;; This function is called by:
  7861 ;;		_CDCInitEP
  7862 ;; This function uses a non-reentrant model
  7863 ;;
  7864                           
  7865                           	psect	text37
  7866  00267A                     __ptext37:
  7867                           	opt stack 0
  7868  00267A                     i2_USBTransferOnePacket:
  7869                           	opt stack 21
  7870                           
  7871                           ; BSR set to: 0
  7872                           ;incstack = 0
  7873                           ;i2USBTransferOnePacket@ep stored from wreg
  7874  00267A  6E05               	movwf	i2USBTransferOnePacket@ep,c
  7875                           
  7876                           ;usb_device.c: 997: volatile BDT_ENTRY* handle;
  7877                           ;usb_device.c: 1000: if(dir != 0)
  7878  00267C  5001               	movf	i2USBTransferOnePacket@dir,w,c
  7879  00267E  B4D8               	btfsc	status,2,c
  7880  002680  D007               	goto	i2l2845
  7881                           
  7882                           ;usb_device.c: 1001: {
  7883                           ;usb_device.c: 1003: handle = pBDTEntryIn[ep];
  7884  002682  5005               	movf	i2USBTransferOnePacket@ep,w,c
  7885  002684  0D02               	mullw	2
  7886  002686  0E78               	movlw	low _pBDTEntryIn
  7887  002688  24F3               	addwf	prodl,w,c
  7888  00268A  6ED9               	movwf	fsr2l,c
  7889  00268C  0E00               	movlw	high _pBDTEntryIn
  7890  00268E  D006               	goto	L13
  7891  002690                     i2l2845:
  7892                           
  7893                           ;usb_device.c: 1005: else
  7894                           ;usb_device.c: 1006: {
  7895                           ;usb_device.c: 1008: handle = pBDTEntryOut[ep];
  7896  002690  5005               	movf	i2USBTransferOnePacket@ep,w,c
  7897  002692  0D02               	mullw	2
  7898  002694  0E7E               	movlw	low _pBDTEntryOut
  7899  002696  24F3               	addwf	prodl,w,c
  7900  002698  6ED9               	movwf	fsr2l,c
  7901  00269A  0E00               	movlw	high _pBDTEntryOut
  7902  00269C                     L13:
  7903  00269C  20F4               	addwfc	prodh,w,c
  7904  00269E  6EDA               	movwf	fsr2h,c
  7905  0026A0  CFDE F006          	movff	postinc2,i2USBTransferOnePacket@handle
  7906  0026A4  CFDD F007          	movff	postdec2,i2USBTransferOnePacket@handle+1
  7907                           
  7908                           ;usb_device.c: 1009: }
  7909                           ;usb_device.c: 1013: if(handle == 0)
  7910  0026A8  5006               	movf	i2USBTransferOnePacket@handle,w,c
  7911  0026AA  1007               	iorwf	i2USBTransferOnePacket@handle+1,w,c
  7912  0026AC  A4D8               	btfss	status,2,c
  7913  0026AE  D005               	goto	i2l2853
  7914                           
  7915                           ;usb_device.c: 1014: {
  7916                           ;usb_device.c: 1015: return 0;
  7917  0026B0  0E00               	movlw	0
  7918  0026B2  6E01               	movwf	?i2_USBTransferOnePacket,c
  7919  0026B4  0E00               	movlw	0
  7920  0026B6  6E02               	movwf	?i2_USBTransferOnePacket+1,c
  7921  0026B8  0012               	return	
  7922  0026BA                     i2l2853:
  7923                           
  7924                           ;usb_device.c: 1016: }
  7925                           ;usb_device.c: 1029: handle->ADR = ((uint16_t)(data));
  7926  0026BA  EE20 F002          	lfsr	2,2
  7927  0026BE  5006               	movf	i2USBTransferOnePacket@handle,w,c
  7928  0026C0  26D9               	addwf	fsr2l,f,c
  7929  0026C2  5007               	movf	i2USBTransferOnePacket@handle+1,w,c
  7930  0026C4  22DA               	addwfc	fsr2h,f,c
  7931  0026C6  C002  FFDE         	movff	i2USBTransferOnePacket@data,postinc2
  7932  0026CA  C003  FFDD         	movff	i2USBTransferOnePacket@data+1,postdec2
  7933                           
  7934                           ;usb_device.c: 1030: handle->CNT = len;
  7935  0026CE  EE20 F001          	lfsr	2,1
  7936  0026D2  5006               	movf	i2USBTransferOnePacket@handle,w,c
  7937  0026D4  26D9               	addwf	fsr2l,f,c
  7938  0026D6  5007               	movf	i2USBTransferOnePacket@handle+1,w,c
  7939  0026D8  22DA               	addwfc	fsr2h,f,c
  7940  0026DA  C004  FFDF         	movff	i2USBTransferOnePacket@len,indf2
  7941                           
  7942                           ;usb_device.c: 1031: handle->STAT.Val &= 0x40;
  7943  0026DE  C006  FFD9         	movff	i2USBTransferOnePacket@handle,fsr2l
  7944  0026E2  C007  FFDA         	movff	i2USBTransferOnePacket@handle+1,fsr2h
  7945  0026E6  0E40               	movlw	64
  7946  0026E8  16DF               	andwf	indf2,f,c
  7947                           
  7948                           ;usb_device.c: 1032: handle->STAT.Val |= (0x08 & 0x08);
  7949  0026EA  C006  FFD9         	movff	i2USBTransferOnePacket@handle,fsr2l
  7950  0026EE  C007  FFDA         	movff	i2USBTransferOnePacket@handle+1,fsr2h
  7951  0026F2  0E00               	movlw	0
  7952  0026F4  86DB               	bsf	plusw2,3,c
  7953                           
  7954                           ;usb_device.c: 1033: handle->STAT.Val |= 0x80;
  7955  0026F6  C006  FFD9         	movff	i2USBTransferOnePacket@handle,fsr2l
  7956  0026FA  C007  FFDA         	movff	i2USBTransferOnePacket@handle+1,fsr2h
  7957  0026FE  0E00               	movlw	0
  7958  002700  8EDB               	bsf	plusw2,7,c
  7959                           
  7960                           ;usb_device.c: 1036: if(dir != 0)
  7961  002702  5001               	movf	i2USBTransferOnePacket@dir,w,c
  7962  002704  B4D8               	btfsc	status,2,c
  7963  002706  D007               	goto	i2l2865
  7964                           
  7965                           ;usb_device.c: 1037: {
  7966                           ;usb_device.c: 1039: {((uint8_t_VAL*)&pBDTEntryIn[ep])->Val ^= 0x0004;};
  7967  002708  5005               	movf	i2USBTransferOnePacket@ep,w,c
  7968  00270A  0D02               	mullw	2
  7969  00270C  0E78               	movlw	low _pBDTEntryIn
  7970  00270E  24F3               	addwf	prodl,w,c
  7971  002710  6ED9               	movwf	fsr2l,c
  7972  002712  0E00               	movlw	high _pBDTEntryIn
  7973  002714  D006               	goto	L14
  7974  002716                     i2l2865:
  7975                           
  7976                           ;usb_device.c: 1041: else
  7977                           ;usb_device.c: 1042: {
  7978                           ;usb_device.c: 1044: {((uint8_t_VAL*)&pBDTEntryOut[ep])->Val ^= 0x0004;};
  7979  002716  5005               	movf	i2USBTransferOnePacket@ep,w,c
  7980  002718  0D02               	mullw	2
  7981  00271A  0E7E               	movlw	low _pBDTEntryOut
  7982  00271C  24F3               	addwf	prodl,w,c
  7983  00271E  6ED9               	movwf	fsr2l,c
  7984  002720  0E00               	movlw	high _pBDTEntryOut
  7985  002722                     L14:
  7986  002722  20F4               	addwfc	prodh,w,c
  7987  002724  6EDA               	movwf	fsr2h,c
  7988  002726  0E04               	movlw	4
  7989  002728  1ADF               	xorwf	indf2,f,c
  7990                           
  7991                           ;usb_device.c: 1045: }
  7992                           ;usb_device.c: 1046: return (void*)handle;
  7993  00272A  C006  F001         	movff	i2USBTransferOnePacket@handle,?i2_USBTransferOnePacket
  7994  00272E  C007  F002         	movff	i2USBTransferOnePacket@handle+1,?i2_USBTransferOnePacket+1
  7995  002732  0012               	return	
  7996  002734                     __end_ofi2_USBTransferOnePacket:
  7997                           	opt stack 0
  7998                           pclatu	equ	0xFFB
  7999                           pclath	equ	0xFFA
  8000                           tblptru	equ	0xFF8
  8001                           tblptrh	equ	0xFF7
  8002                           tblptrl	equ	0xFF6
  8003                           tablat	equ	0xFF5
  8004                           prodh	equ	0xFF4
  8005                           prodl	equ	0xFF3
  8006                           intcon	equ	0xFF2
  8007                           postinc0	equ	0xFEE
  8008                           fsr0h	equ	0xFEA
  8009                           fsr0l	equ	0xFE9
  8010                           wreg	equ	0xFE8
  8011                           indf1	equ	0xFE7
  8012                           fsr1h	equ	0xFE2
  8013                           fsr1l	equ	0xFE1
  8014                           bsr	equ	0xFE0
  8015                           indf2	equ	0xFDF
  8016                           postinc2	equ	0xFDE
  8017                           postdec2	equ	0xFDD
  8018                           plusw2	equ	0xFDB
  8019                           fsr2h	equ	0xFDA
  8020                           fsr2l	equ	0xFD9
  8021                           status	equ	0xFD8
  8022                           
  8023 ;; *************** function _USBEnableEndpoint *****************
  8024 ;; Defined at:
  8025 ;;		line 878 in file "usb_device.c"
  8026 ;; Parameters:    Size  Location     Type
  8027 ;;  ep              1    wreg     unsigned char 
  8028 ;;  options         1    8[COMRAM] unsigned char 
  8029 ;; Auto vars:     Size  Location     Type
  8030 ;;  ep              1   11[COMRAM] unsigned char 
  8031 ;;  p               2    9[COMRAM] PTR unsigned char 
  8032 ;;		 -> UEP0(1), 
  8033 ;; Return value:  Size  Location     Type
  8034 ;;                  1    wreg      void 
  8035 ;; Registers used:
  8036 ;;		wreg, fsr2l, fsr2h, status,2, status,0, prodl, prodh, cstack
  8037 ;; Tracked objects:
  8038 ;;		On entry : 0/0
  8039 ;;		On exit  : 0/0
  8040 ;;		Unchanged: 0/0
  8041 ;; Data sizes:     COMRAM   BANK0   BANK1   BANK2   BANK3   BANK4   BANK5   BANK6   BANK7
  8042 ;;      Params:         1       0       0       0       0       0       0       0       0
  8043 ;;      Locals:         3       0       0       0       0       0       0       0       0
  8044 ;;      Temps:          0       0       0       0       0       0       0       0       0
  8045 ;;      Totals:         4       0       0       0       0       0       0       0       0
  8046 ;;Total ram usage:        4 bytes
  8047 ;; Hardware stack levels used:    1
  8048 ;; Hardware stack levels required when called:    1
  8049 ;; This function calls:
  8050 ;;		_USBConfigureEndpoint
  8051 ;; This function is called by:
  8052 ;;		_CDCInitEP
  8053 ;; This function uses a non-reentrant model
  8054 ;;
  8055                           
  8056                           	psect	text38
  8057  002B90                     __ptext38:
  8058                           	opt stack 0
  8059  002B90                     _USBEnableEndpoint:
  8060                           	opt stack 20
  8061                           
  8062                           ;incstack = 0
  8063                           ;USBEnableEndpoint@ep stored from wreg
  8064  002B90  6E0C               	movwf	USBEnableEndpoint@ep,c
  8065                           
  8066                           ;usb_device.c: 880: unsigned char* p;
  8067                           ;usb_device.c: 884: if(options & 0x04)
  8068  002B92  A409               	btfss	USBEnableEndpoint@options,2,c
  8069  002B94  D005               	goto	i2l2833
  8070                           
  8071                           ;usb_device.c: 885: {
  8072                           ;usb_device.c: 886: USBConfigureEndpoint(ep, 0);
  8073  002B96  0E00               	movlw	0
  8074  002B98  6E01               	movwf	USBConfigureEndpoint@direction,c
  8075  002B9A  500C               	movf	USBEnableEndpoint@ep,w,c
  8076  002B9C  EC3B  F014         	call	_USBConfigureEndpoint
  8077  002BA0                     i2l2833:
  8078                           
  8079                           ;usb_device.c: 887: }
  8080                           ;usb_device.c: 888: if(options & 0x02)
  8081  002BA0  A209               	btfss	USBEnableEndpoint@options,1,c
  8082  002BA2  D005               	goto	i2l2837
  8083                           
  8084                           ;usb_device.c: 889: {
  8085                           ;usb_device.c: 890: USBConfigureEndpoint(ep, 1);
  8086  002BA4  0E01               	movlw	1
  8087  002BA6  6E01               	movwf	USBConfigureEndpoint@direction,c
  8088  002BA8  500C               	movf	USBEnableEndpoint@ep,w,c
  8089  002BAA  EC3B  F014         	call	_USBConfigureEndpoint
  8090  002BAE                     i2l2837:
  8091                           
  8092                           ;usb_device.c: 891: }
  8093                           ;usb_device.c: 899: p = (unsigned char*)(&UEP0+ep);
  8094  002BAE  500C               	movf	USBEnableEndpoint@ep,w,c
  8095  002BB0  0D01               	mullw	1
  8096  002BB2  0E70               	movlw	112
  8097  002BB4  24F3               	addwf	prodl,w,c
  8098  002BB6  6E0A               	movwf	USBEnableEndpoint@p,c
  8099  002BB8  0E0F               	movlw	15
  8100  002BBA  20F4               	addwfc	prodh,w,c
  8101  002BBC  6E0B               	movwf	USBEnableEndpoint@p+1,c
  8102                           
  8103                           ;usb_device.c: 901: *p = options;
  8104  002BBE  C00A  FFD9         	movff	USBEnableEndpoint@p,fsr2l
  8105  002BC2  C00B  FFDA         	movff	USBEnableEndpoint@p+1,fsr2h
  8106  002BC6  C009  FFDF         	movff	USBEnableEndpoint@options,indf2
  8107  002BCA  0012               	return		;funcret
  8108  002BCC                     __end_of_USBEnableEndpoint:
  8109                           	opt stack 0
  8110                           pclatu	equ	0xFFB
  8111                           pclath	equ	0xFFA
  8112                           tblptru	equ	0xFF8
  8113                           tblptrh	equ	0xFF7
  8114                           tblptrl	equ	0xFF6
  8115                           tablat	equ	0xFF5
  8116                           prodh	equ	0xFF4
  8117                           prodl	equ	0xFF3
  8118                           intcon	equ	0xFF2
  8119                           postinc0	equ	0xFEE
  8120                           fsr0h	equ	0xFEA
  8121                           fsr0l	equ	0xFE9
  8122                           wreg	equ	0xFE8
  8123                           indf1	equ	0xFE7
  8124                           fsr1h	equ	0xFE2
  8125                           fsr1l	equ	0xFE1
  8126                           bsr	equ	0xFE0
  8127                           indf2	equ	0xFDF
  8128                           postinc2	equ	0xFDE
  8129                           postdec2	equ	0xFDD
  8130                           plusw2	equ	0xFDB
  8131                           fsr2h	equ	0xFDA
  8132                           fsr2l	equ	0xFD9
  8133                           status	equ	0xFD8
  8134                           
  8135 ;; *************** function _USBConfigureEndpoint *****************
  8136 ;; Defined at:
  8137 ;;		line 1543 in file "usb_device.c"
  8138 ;; Parameters:    Size  Location     Type
  8139 ;;  EPNum           1    wreg     unsigned char 
  8140 ;;  direction       1    0[COMRAM] unsigned char 
  8141 ;; Auto vars:     Size  Location     Type
  8142 ;;  EPNum           1    5[COMRAM] unsigned char 
  8143 ;;  handle          2    6[COMRAM] PTR volatile struct __BD
  8144 ;;		 -> BDT(48), 
  8145 ;; Return value:  Size  Location     Type
  8146 ;;                  1    wreg      void 
  8147 ;; Registers used:
  8148 ;;		wreg, fsr2l, fsr2h, status,2, status,0, prodl, prodh
  8149 ;; Tracked objects:
  8150 ;;		On entry : 0/0
  8151 ;;		On exit  : 0/0
  8152 ;;		Unchanged: 0/0
  8153 ;; Data sizes:     COMRAM   BANK0   BANK1   BANK2   BANK3   BANK4   BANK5   BANK6   BANK7
  8154 ;;      Params:         1       0       0       0       0       0       0       0       0
  8155 ;;      Locals:         3       0       0       0       0       0       0       0       0
  8156 ;;      Temps:          4       0       0       0       0       0       0       0       0
  8157 ;;      Totals:         8       0       0       0       0       0       0       0       0
  8158 ;;Total ram usage:        8 bytes
  8159 ;; Hardware stack levels used:    1
  8160 ;; This function calls:
  8161 ;;		Nothing
  8162 ;; This function is called by:
  8163 ;;		_USBEnableEndpoint
  8164 ;; This function uses a non-reentrant model
  8165 ;;
  8166                           
  8167                           	psect	text39
  8168  002876                     __ptext39:
  8169                           	opt stack 0
  8170  002876                     _USBConfigureEndpoint:
  8171                           	opt stack 20
  8172                           
  8173                           ;incstack = 0
  8174                           ;USBConfigureEndpoint@EPNum stored from wreg
  8175  002876  6E06               	movwf	USBConfigureEndpoint@EPNum,c
  8176                           
  8177                           ;usb_device.c: 1545: volatile BDT_ENTRY* handle;
  8178                           ;usb_device.c: 1549: handle = (volatile BDT_ENTRY*)&BDT[0];
  8179  002878  0E00               	movlw	0
  8180  00287A  6E07               	movwf	USBConfigureEndpoint@handle,c
  8181  00287C  0E04               	movlw	4
  8182  00287E  6E08               	movwf	USBConfigureEndpoint@handle+1,c
  8183                           
  8184                           ;usb_device.c: 1550: handle += (4*EPNum+2*direction+0u);
  8185  002880  5001               	movf	USBConfigureEndpoint@direction,w,c
  8186  002882  6E02               	movwf	??_USBConfigureEndpoint& (0+255),c
  8187  002884  6A03               	clrf	(??_USBConfigureEndpoint+1)& (0+255),c
  8188  002886  90D8               	bcf	status,0,c
  8189  002888  3602               	rlcf	??_USBConfigureEndpoint,f,c
  8190  00288A  3603               	rlcf	??_USBConfigureEndpoint+1,f,c
  8191  00288C  5006               	movf	USBConfigureEndpoint@EPNum,w,c
  8192  00288E  6E04               	movwf	(??_USBConfigureEndpoint+2)& (0+255),c
  8193  002890  6A05               	clrf	(??_USBConfigureEndpoint+3)& (0+255),c
  8194  002892  90D8               	bcf	status,0,c
  8195  002894  3604               	rlcf	??_USBConfigureEndpoint+2,f,c
  8196  002896  3605               	rlcf	??_USBConfigureEndpoint+3,f,c
  8197  002898  90D8               	bcf	status,0,c
  8198  00289A  3604               	rlcf	??_USBConfigureEndpoint+2,f,c
  8199  00289C  3605               	rlcf	??_USBConfigureEndpoint+3,f,c
  8200  00289E  5002               	movf	??_USBConfigureEndpoint,w,c
  8201  0028A0  2604               	addwf	??_USBConfigureEndpoint+2,f,c
  8202  0028A2  5003               	movf	??_USBConfigureEndpoint+1,w,c
  8203  0028A4  2205               	addwfc	??_USBConfigureEndpoint+3,f,c
  8204  0028A6  90D8               	bcf	status,0,c
  8205  0028A8  3604               	rlcf	??_USBConfigureEndpoint+2,f,c
  8206  0028AA  3605               	rlcf	??_USBConfigureEndpoint+3,f,c
  8207  0028AC  90D8               	bcf	status,0,c
  8208  0028AE  3604               	rlcf	??_USBConfigureEndpoint+2,f,c
  8209  0028B0  3605               	rlcf	??_USBConfigureEndpoint+3,f,c
  8210  0028B2  5004               	movf	??_USBConfigureEndpoint+2,w,c
  8211  0028B4  2607               	addwf	USBConfigureEndpoint@handle,f,c
  8212  0028B6  5005               	movf	??_USBConfigureEndpoint+3,w,c
  8213  0028B8  2208               	addwfc	USBConfigureEndpoint@handle+1,f,c
  8214                           
  8215                           ;usb_device.c: 1552: handle->STAT.UOWN = 0;
  8216  0028BA  C007  FFD9         	movff	USBConfigureEndpoint@handle,fsr2l
  8217  0028BE  C008  FFDA         	movff	USBConfigureEndpoint@handle+1,fsr2h
  8218  0028C2  9EDF               	bcf	indf2,7,c
  8219                           
  8220                           ;usb_device.c: 1557: if(direction == 0)
  8221  0028C4  5001               	movf	USBConfigureEndpoint@direction,w,c
  8222  0028C6  A4D8               	btfss	status,2,c
  8223  0028C8  D007               	goto	i2l2823
  8224                           
  8225                           ;usb_device.c: 1558: {
  8226                           ;usb_device.c: 1559: pBDTEntryOut[EPNum] = handle;
  8227  0028CA  5006               	movf	USBConfigureEndpoint@EPNum,w,c
  8228  0028CC  0D02               	mullw	2
  8229  0028CE  0E7E               	movlw	low _pBDTEntryOut
  8230  0028D0  24F3               	addwf	prodl,w,c
  8231  0028D2  6ED9               	movwf	fsr2l,c
  8232  0028D4  0E00               	movlw	high _pBDTEntryOut
  8233  0028D6  D006               	goto	L15
  8234  0028D8                     i2l2823:
  8235                           
  8236                           ;usb_device.c: 1561: else
  8237                           ;usb_device.c: 1562: {
  8238                           ;usb_device.c: 1563: pBDTEntryIn[EPNum] = handle;
  8239  0028D8  5006               	movf	USBConfigureEndpoint@EPNum,w,c
  8240  0028DA  0D02               	mullw	2
  8241  0028DC  0E78               	movlw	low _pBDTEntryIn
  8242  0028DE  24F3               	addwf	prodl,w,c
  8243  0028E0  6ED9               	movwf	fsr2l,c
  8244  0028E2  0E00               	movlw	high _pBDTEntryIn
  8245  0028E4                     L15:
  8246  0028E4  20F4               	addwfc	prodh,w,c
  8247  0028E6  6EDA               	movwf	fsr2h,c
  8248  0028E8  C007  FFDE         	movff	USBConfigureEndpoint@handle,postinc2
  8249  0028EC  C008  FFDD         	movff	USBConfigureEndpoint@handle+1,postdec2
  8250                           
  8251                           ;usb_device.c: 1564: }
  8252                           ;usb_device.c: 1567: handle->STAT.DTS = 0;
  8253  0028F0  C007  FFD9         	movff	USBConfigureEndpoint@handle,fsr2l
  8254  0028F4  C008  FFDA         	movff	USBConfigureEndpoint@handle+1,fsr2h
  8255  0028F8  9CDF               	bcf	indf2,6,c
  8256                           
  8257                           ;usb_device.c: 1568: (handle+1)->STAT.DTS = 1;
  8258  0028FA  EE20 F004          	lfsr	2,4
  8259  0028FE  5007               	movf	USBConfigureEndpoint@handle,w,c
  8260  002900  26D9               	addwf	fsr2l,f,c
  8261  002902  5008               	movf	USBConfigureEndpoint@handle+1,w,c
  8262  002904  22DA               	addwfc	fsr2h,f,c
  8263  002906  8CDF               	bsf	indf2,6,c
  8264  002908  0012               	return		;funcret
  8265  00290A                     __end_of_USBConfigureEndpoint:
  8266                           	opt stack 0
  8267                           pclatu	equ	0xFFB
  8268                           pclath	equ	0xFFA
  8269                           tblptru	equ	0xFF8
  8270                           tblptrh	equ	0xFF7
  8271                           tblptrl	equ	0xFF6
  8272                           tablat	equ	0xFF5
  8273                           prodh	equ	0xFF4
  8274                           prodl	equ	0xFF3
  8275                           intcon	equ	0xFF2
  8276                           postinc0	equ	0xFEE
  8277                           fsr0h	equ	0xFEA
  8278                           fsr0l	equ	0xFE9
  8279                           wreg	equ	0xFE8
  8280                           indf1	equ	0xFE7
  8281                           fsr1h	equ	0xFE2
  8282                           fsr1l	equ	0xFE1
  8283                           bsr	equ	0xFE0
  8284                           indf2	equ	0xFDF
  8285                           postinc2	equ	0xFDE
  8286                           postdec2	equ	0xFDD
  8287                           plusw2	equ	0xFDB
  8288                           fsr2h	equ	0xFDA
  8289                           fsr2l	equ	0xFD9
  8290                           status	equ	0xFD8
  8291                           
  8292 ;; *************** function _USBCtrlTrfOutHandler *****************
  8293 ;; Defined at:
  8294 ;;		line 2541 in file "usb_device.c"
  8295 ;; Parameters:    Size  Location     Type
  8296 ;;		None
  8297 ;; Auto vars:     Size  Location     Type
  8298 ;;		None
  8299 ;; Return value:  Size  Location     Type
  8300 ;;                  1    wreg      void 
  8301 ;; Registers used:
  8302 ;;		wreg, fsr1l, fsr1h, fsr2l, fsr2h, status,2, status,0, prodl, prodh, cstack
  8303 ;; Tracked objects:
  8304 ;;		On entry : 0/0
  8305 ;;		On exit  : 0/0
  8306 ;;		Unchanged: 0/0
  8307 ;; Data sizes:     COMRAM   BANK0   BANK1   BANK2   BANK3   BANK4   BANK5   BANK6   BANK7
  8308 ;;      Params:         0       0       0       0       0       0       0       0       0
  8309 ;;      Locals:         0       0       0       0       0       0       0       0       0
  8310 ;;      Temps:          0       0       0       0       0       0       0       0       0
  8311 ;;      Totals:         0       0       0       0       0       0       0       0       0
  8312 ;;Total ram usage:        0 bytes
  8313 ;; Hardware stack levels used:    1
  8314 ;; Hardware stack levels required when called:    2
  8315 ;; This function calls:
  8316 ;;		_USBCtrlTrfRxService
  8317 ;; This function is called by:
  8318 ;;		_USBCtrlEPService
  8319 ;; This function uses a non-reentrant model
  8320 ;;
  8321                           
  8322                           	psect	text40
  8323  002AF2                     __ptext40:
  8324                           	opt stack 0
  8325  002AF2                     _USBCtrlTrfOutHandler:
  8326                           	opt stack 21
  8327                           
  8328                           ;usb_device.c: 2543: if(controlTransferState == 2)
  8329                           
  8330                           ;incstack = 0
  8331  002AF2  0E02               	movlw	2
  8332  002AF4  1843               	xorwf	_controlTransferState,w,c	;volatile
  8333  002AF6  A4D8               	btfss	status,2,c
  8334  002AF8  D003               	goto	i2l3487
  8335                           
  8336                           ;usb_device.c: 2544: {
  8337                           ;usb_device.c: 2545: USBCtrlTrfRxService();
  8338  002AFA  EC13  F00E         	call	_USBCtrlTrfRxService	;wreg free
  8339                           
  8340                           ;usb_device.c: 2546: }
  8341  002AFE  0012               	return	
  8342  002B00                     i2l3487:
  8343                           
  8344                           ;usb_device.c: 2547: else
  8345                           ;usb_device.c: 2548: {
  8346                           ;usb_device.c: 2551: controlTransferState = 0;
  8347  002B00  0E00               	movlw	0
  8348  002B02  6E43               	movwf	_controlTransferState,c	;volatile
  8349                           
  8350                           ;usb_device.c: 2558: if(BothEP0OutUOWNsSet == 0)
  8351  002B04  5039               	movf	_BothEP0OutUOWNsSet,w,c	;volatile
  8352  002B06  A4D8               	btfss	status,2,c
  8353  002B08  D01F               	goto	i2l3495
  8354                           
  8355                           ;usb_device.c: 2559: {
  8356                           ;usb_device.c: 2560: pBDTEntryEP0OutNext->CNT = 8;
  8357  002B0A  EE20 F001          	lfsr	2,1
  8358  002B0E  5035               	movf	_pBDTEntryEP0OutNext,w,c
  8359  002B10  26D9               	addwf	fsr2l,f,c
  8360  002B12  5036               	movf	_pBDTEntryEP0OutNext+1,w,c
  8361  002B14  22DA               	addwfc	fsr2h,f,c
  8362  002B16  0E08               	movlw	8
  8363  002B18  6EDF               	movwf	indf2,c
  8364                           
  8365                           ;usb_device.c: 2561: pBDTEntryEP0OutNext->ADR = ((uint16_t)(&SetupPkt));
  8366  002B1A  EE20 F002          	lfsr	2,2
  8367  002B1E  5035               	movf	_pBDTEntryEP0OutNext,w,c
  8368  002B20  26D9               	addwf	fsr2l,f,c
  8369  002B22  5036               	movf	_pBDTEntryEP0OutNext+1,w,c
  8370  002B24  22DA               	addwfc	fsr2h,f,c
  8371  002B26  0E30               	movlw	48
  8372  002B28  6EDE               	movwf	postinc2,c
  8373  002B2A  0E04               	movlw	4
  8374  002B2C  6EDD               	movwf	postdec2,c
  8375                           
  8376                           ;usb_device.c: 2562: pBDTEntryEP0OutNext->STAT.Val = 0x00|(0x08 & 0x08)|0x04;
  8377  002B2E  C035  FFD9         	movff	_pBDTEntryEP0OutNext,fsr2l
  8378  002B32  C036  FFDA         	movff	_pBDTEntryEP0OutNext+1,fsr2h
  8379  002B36  0E0C               	movlw	12
  8380  002B38  6EDF               	movwf	indf2,c
  8381                           
  8382                           ;usb_device.c: 2563: pBDTEntryEP0OutNext->STAT.Val |= 0x80;
  8383  002B3A  C035  FFD9         	movff	_pBDTEntryEP0OutNext,fsr2l
  8384  002B3E  C036  FFDA         	movff	_pBDTEntryEP0OutNext+1,fsr2h
  8385  002B42  0E00               	movlw	0
  8386  002B44  8EDB               	bsf	plusw2,7,c
  8387                           
  8388                           ;usb_device.c: 2564: }
  8389  002B46  0012               	return	
  8390  002B48                     i2l3495:
  8391                           
  8392                           ;usb_device.c: 2565: else
  8393                           ;usb_device.c: 2566: {
  8394                           ;usb_device.c: 2567: BothEP0OutUOWNsSet = 0;
  8395  002B48  0E00               	movlw	0
  8396  002B4A  6E39               	movwf	_BothEP0OutUOWNsSet,c	;volatile
  8397  002B4C  0012               	return	
  8398  002B4E                     __end_of_USBCtrlTrfOutHandler:
  8399                           	opt stack 0
  8400                           pclatu	equ	0xFFB
  8401                           pclath	equ	0xFFA
  8402                           tblptru	equ	0xFF8
  8403                           tblptrh	equ	0xFF7
  8404                           tblptrl	equ	0xFF6
  8405                           tablat	equ	0xFF5
  8406                           prodh	equ	0xFF4
  8407                           prodl	equ	0xFF3
  8408                           intcon	equ	0xFF2
  8409                           postinc0	equ	0xFEE
  8410                           fsr0h	equ	0xFEA
  8411                           fsr0l	equ	0xFE9
  8412                           wreg	equ	0xFE8
  8413                           indf1	equ	0xFE7
  8414                           fsr1h	equ	0xFE2
  8415                           fsr1l	equ	0xFE1
  8416                           bsr	equ	0xFE0
  8417                           indf2	equ	0xFDF
  8418                           postinc2	equ	0xFDE
  8419                           postdec2	equ	0xFDD
  8420                           plusw2	equ	0xFDB
  8421                           fsr2h	equ	0xFDA
  8422                           fsr2l	equ	0xFD9
  8423                           status	equ	0xFD8
  8424                           
  8425 ;; *************** function _USBCtrlTrfRxService *****************
  8426 ;; Defined at:
  8427 ;;		line 1852 in file "usb_device.c"
  8428 ;; Parameters:    Size  Location     Type
  8429 ;;		None
  8430 ;; Auto vars:     Size  Location     Type
  8431 ;;  byteToRead      1    1[COMRAM] unsigned char 
  8432 ;;  i               1    0[COMRAM] unsigned char 
  8433 ;; Return value:  Size  Location     Type
  8434 ;;                  1    wreg      void 
  8435 ;; Registers used:
  8436 ;;		wreg, fsr1l, fsr1h, fsr2l, fsr2h, status,2, status,0, prodl, prodh, cstack
  8437 ;; Tracked objects:
  8438 ;;		On entry : 0/0
  8439 ;;		On exit  : 0/0
  8440 ;;		Unchanged: 0/0
  8441 ;; Data sizes:     COMRAM   BANK0   BANK1   BANK2   BANK3   BANK4   BANK5   BANK6   BANK7
  8442 ;;      Params:         0       0       0       0       0       0       0       0       0
  8443 ;;      Locals:         2       0       0       0       0       0       0       0       0
  8444 ;;      Temps:          0       0       0       0       0       0       0       0       0
  8445 ;;      Totals:         2       0       0       0       0       0       0       0       0
  8446 ;;Total ram usage:        2 bytes
  8447 ;; Hardware stack levels used:    1
  8448 ;; Hardware stack levels required when called:    1
  8449 ;; This function calls:
  8450 ;;		_USBCtrlEPAllowStatusStage
  8451 ;; This function is called by:
  8452 ;;		_USBCtrlTrfOutHandler
  8453 ;; This function uses a non-reentrant model
  8454 ;;
  8455                           
  8456                           	psect	text41
  8457  001C26                     __ptext41:
  8458                           	opt stack 0
  8459  001C26                     _USBCtrlTrfRxService:
  8460                           	opt stack 21
  8461                           
  8462                           ;usb_device.c: 1854: uint8_t byteToRead;
  8463                           ;usb_device.c: 1855: uint8_t i;
  8464                           ;usb_device.c: 1859: byteToRead = pBDTEntryEP0OutCurrent->CNT;
  8465                           
  8466                           ;incstack = 0
  8467  001C26  EE20 F001          	lfsr	2,1
  8468  001C2A  5033               	movf	_pBDTEntryEP0OutCurrent,w,c
  8469  001C2C  26D9               	addwf	fsr2l,f,c
  8470  001C2E  5034               	movf	_pBDTEntryEP0OutCurrent+1,w,c
  8471  001C30  22DA               	addwfc	fsr2h,f,c
  8472  001C32  50DF               	movf	indf2,w,c
  8473  001C34  6E02               	movwf	USBCtrlTrfRxService@byteToRead,c
  8474                           
  8475                           ;usb_device.c: 1865: if(byteToRead > outPipes[0].wCount.Val)
  8476  001C36  5002               	movf	USBCtrlTrfRxService@byteToRead,w,c
  8477  001C38  0100               	movlb	0	; () banked
  8478  001C3A  5D6E               	subwf	(_outPipes+4)& (0+255),w,b	;volatile
  8479  001C3C  0E00               	movlw	0
  8480  001C3E  596F               	subwfb	(_outPipes+5)& (0+255),w,b	;volatile
  8481  001C40  A0D8               	btfss	status,0,c
  8482                           
  8483                           ; BSR set to: 0
  8484                           ;usb_device.c: 1866: {
  8485                           ;usb_device.c: 1867: byteToRead = outPipes[0].wCount.Val;
  8486  001C42  C06E  F002         	movff	_outPipes+4,USBCtrlTrfRxService@byteToRead	;volatile
  8487                           
  8488                           ; BSR set to: 0
  8489                           ;usb_device.c: 1868: }
  8490                           ;usb_device.c: 1870: outPipes[0].wCount.Val -= byteToRead;
  8491                           
  8492                           ; BSR set to: 0
  8493  001C46  5002               	movf	USBCtrlTrfRxService@byteToRead,w,c
  8494  001C48  0100               	movlb	0	; () banked
  8495  001C4A  5F6E               	subwf	(_outPipes+4)& (0+255),f,b	;volatile
  8496  001C4C  0E00               	movlw	0
  8497  001C4E  5B6F               	subwfb	(_outPipes+5)& (0+255),f,b	;volatile
  8498                           
  8499                           ; BSR set to: 0
  8500                           ;usb_device.c: 1874: for(i=0;i<byteToRead;i++)
  8501  001C50  0E00               	movlw	0
  8502  001C52  6E01               	movwf	USBCtrlTrfRxService@i,c
  8503  001C54  D012               	goto	i2l3361
  8504  001C56                     i2l3355:
  8505                           
  8506                           ; BSR set to: 0
  8507                           ;usb_device.c: 1875: {
  8508                           ;usb_device.c: 1876: *outPipes[0].pDst.bRam++ = CtrlTrfData[i];
  8509  001C56  5001               	movf	USBCtrlTrfRxService@i,w,c
  8510  001C58  0D01               	mullw	1
  8511  001C5A  0E38               	movlw	56
  8512  001C5C  24F3               	addwf	prodl,w,c
  8513  001C5E  6ED9               	movwf	fsr2l,c
  8514  001C60  0E04               	movlw	4
  8515  001C62  20F4               	addwfc	prodh,w,c
  8516  001C64  6EDA               	movwf	fsr2h,c
  8517  001C66  C06A  FFE1         	movff	_outPipes,fsr1l	;volatile
  8518  001C6A  C06B  FFE2         	movff	_outPipes+1,fsr1h	;volatile
  8519  001C6E  CFDF FFE7          	movff	indf2,indf1
  8520                           
  8521                           ; BSR set to: 0
  8522  001C72  0100               	movlb	0	; () banked
  8523  001C74  4B6A               	infsnz	_outPipes& (0+255),f,b	;volatile
  8524  001C76  2B6B               	incf	(_outPipes+1)& (0+255),f,b	;volatile
  8525                           
  8526                           ; BSR set to: 0
  8527  001C78  2A01               	incf	USBCtrlTrfRxService@i,f,c
  8528  001C7A                     i2l3361:
  8529                           
  8530                           ; BSR set to: 0
  8531  001C7A  5002               	movf	USBCtrlTrfRxService@byteToRead,w,c
  8532  001C7C  5C01               	subwf	USBCtrlTrfRxService@i,w,c
  8533  001C7E  A0D8               	btfss	status,0,c
  8534  001C80  D7EA               	goto	i2l3355
  8535                           
  8536                           ; BSR set to: 0
  8537                           ;usb_device.c: 1877: }
  8538                           ;usb_device.c: 1881: if(outPipes[0].wCount.Val > 0)
  8539                           
  8540                           ; BSR set to: 0
  8541  001C82  0100               	movlb	0	; () banked
  8542  001C84  516E               	movf	(_outPipes+4)& (0+255),w,b	;volatile
  8543  001C86  0100               	movlb	0	; () banked
  8544  001C88  116F               	iorwf	(_outPipes+5)& (0+255),w,b	;volatile
  8545  001C8A  B4D8               	btfsc	status,2,c
  8546  001C8C  D032               	goto	i2l3377
  8547                           
  8548                           ; BSR set to: 0
  8549                           ;usb_device.c: 1882: {
  8550                           ;usb_device.c: 1883: pBDTEntryEP0OutNext->CNT = 8;
  8551  001C8E  EE20 F001          	lfsr	2,1
  8552  001C92  5035               	movf	_pBDTEntryEP0OutNext,w,c
  8553  001C94  26D9               	addwf	fsr2l,f,c
  8554  001C96  5036               	movf	_pBDTEntryEP0OutNext+1,w,c
  8555  001C98  22DA               	addwfc	fsr2h,f,c
  8556  001C9A  0E08               	movlw	8
  8557  001C9C  6EDF               	movwf	indf2,c
  8558                           
  8559                           ;usb_device.c: 1884: pBDTEntryEP0OutNext->ADR = ((uint16_t)(&CtrlTrfData));
  8560  001C9E  EE20 F002          	lfsr	2,2
  8561  001CA2  5035               	movf	_pBDTEntryEP0OutNext,w,c
  8562  001CA4  26D9               	addwf	fsr2l,f,c
  8563  001CA6  5036               	movf	_pBDTEntryEP0OutNext+1,w,c
  8564  001CA8  22DA               	addwfc	fsr2h,f,c
  8565  001CAA  0E38               	movlw	56
  8566  001CAC  6EDE               	movwf	postinc2,c
  8567  001CAE  0E04               	movlw	4
  8568  001CB0  6EDD               	movwf	postdec2,c
  8569                           
  8570                           ; BSR set to: 0
  8571                           ;usb_device.c: 1885: if(pBDTEntryEP0OutCurrent->STAT.DTS == 0)
  8572  001CB2  C033  FFD9         	movff	_pBDTEntryEP0OutCurrent,fsr2l
  8573  001CB6  C034  FFDA         	movff	_pBDTEntryEP0OutCurrent+1,fsr2h
  8574  001CBA  BCDF               	btfsc	indf2,6,c
  8575  001CBC  D00D               	goto	i2l3373
  8576                           
  8577                           ; BSR set to: 0
  8578                           ;usb_device.c: 1886: {
  8579                           ;usb_device.c: 1887: pBDTEntryEP0OutNext->STAT.Val = 0x40|(0x08 & 0x08);
  8580  001CBE  C035  FFD9         	movff	_pBDTEntryEP0OutNext,fsr2l
  8581  001CC2  C036  FFDA         	movff	_pBDTEntryEP0OutNext+1,fsr2h
  8582  001CC6  0E48               	movlw	72
  8583  001CC8  6EDF               	movwf	indf2,c
  8584                           
  8585                           ; BSR set to: 0
  8586                           ;usb_device.c: 1888: pBDTEntryEP0OutNext->STAT.Val |= 0x80;
  8587  001CCA  C035  FFD9         	movff	_pBDTEntryEP0OutNext,fsr2l
  8588  001CCE  C036  FFDA         	movff	_pBDTEntryEP0OutNext+1,fsr2h
  8589  001CD2  0E00               	movlw	0
  8590  001CD4  8EDB               	bsf	plusw2,7,c
  8591                           
  8592                           ;usb_device.c: 1889: }
  8593  001CD6  0012               	return	
  8594  001CD8                     i2l3373:
  8595                           
  8596                           ; BSR set to: 0
  8597                           ;usb_device.c: 1890: else
  8598                           ;usb_device.c: 1891: {
  8599                           ;usb_device.c: 1892: pBDTEntryEP0OutNext->STAT.Val = 0x00|(0x08 & 0x08);
  8600  001CD8  C035  FFD9         	movff	_pBDTEntryEP0OutNext,fsr2l
  8601  001CDC  C036  FFDA         	movff	_pBDTEntryEP0OutNext+1,fsr2h
  8602  001CE0  0E08               	movlw	8
  8603  001CE2  6EDF               	movwf	indf2,c
  8604                           
  8605                           ; BSR set to: 0
  8606                           ;usb_device.c: 1893: pBDTEntryEP0OutNext->STAT.Val |= 0x80;
  8607  001CE4  C035  FFD9         	movff	_pBDTEntryEP0OutNext,fsr2l
  8608  001CE8  C036  FFDA         	movff	_pBDTEntryEP0OutNext+1,fsr2h
  8609  001CEC  0E00               	movlw	0
  8610  001CEE  8EDB               	bsf	plusw2,7,c
  8611                           
  8612                           ; BSR set to: 0
  8613                           ;usb_device.c: 1894: }
  8614                           ;usb_device.c: 1895: }
  8615  001CF0  0012               	return	
  8616  001CF2                     i2l3377:
  8617                           
  8618                           ; BSR set to: 0
  8619                           ;usb_device.c: 1896: else
  8620                           ;usb_device.c: 1897: {
  8621                           ;usb_device.c: 1901: pBDTEntryEP0OutNext->CNT = 8;
  8622  001CF2  EE20 F001          	lfsr	2,1
  8623  001CF6  5035               	movf	_pBDTEntryEP0OutNext,w,c
  8624  001CF8  26D9               	addwf	fsr2l,f,c
  8625  001CFA  5036               	movf	_pBDTEntryEP0OutNext+1,w,c
  8626  001CFC  22DA               	addwfc	fsr2h,f,c
  8627  001CFE  0E08               	movlw	8
  8628  001D00  6EDF               	movwf	indf2,c
  8629                           
  8630                           ;usb_device.c: 1902: pBDTEntryEP0OutNext->ADR = ((uint16_t)(&SetupPkt));
  8631  001D02  EE20 F002          	lfsr	2,2
  8632  001D06  5035               	movf	_pBDTEntryEP0OutNext,w,c
  8633  001D08  26D9               	addwf	fsr2l,f,c
  8634  001D0A  5036               	movf	_pBDTEntryEP0OutNext+1,w,c
  8635  001D0C  22DA               	addwfc	fsr2h,f,c
  8636  001D0E  0E30               	movlw	48
  8637  001D10  6EDE               	movwf	postinc2,c
  8638  001D12  0E04               	movlw	4
  8639  001D14  6EDD               	movwf	postdec2,c
  8640                           
  8641                           ; BSR set to: 0
  8642                           ;usb_device.c: 1906: pBDTEntryEP0OutNext->STAT.Val = 0x04;
  8643  001D16  C035  FFD9         	movff	_pBDTEntryEP0OutNext,fsr2l
  8644  001D1A  C036  FFDA         	movff	_pBDTEntryEP0OutNext+1,fsr2h
  8645  001D1E  0E04               	movlw	4
  8646  001D20  6EDF               	movwf	indf2,c
  8647                           
  8648                           ; BSR set to: 0
  8649                           ;usb_device.c: 1907: pBDTEntryEP0OutNext->STAT.Val |= 0x80;
  8650  001D22  C035  FFD9         	movff	_pBDTEntryEP0OutNext,fsr2l
  8651  001D26  C036  FFDA         	movff	_pBDTEntryEP0OutNext+1,fsr2h
  8652  001D2A  0E00               	movlw	0
  8653  001D2C  8EDB               	bsf	plusw2,7,c
  8654                           
  8655                           ; BSR set to: 0
  8656                           ;usb_device.c: 1926: }
  8657                           ;usb_device.c: 1927: outPipes[0].info.bits.busy = 0;
  8658                           
  8659                           ; BSR set to: 0
  8660                           ;usb_device.c: 1915: {
  8661                           ;usb_device.c: 1921: outPipes[0].pFunc();
  8662  001D2E  0100               	movlb	0	; () banked
  8663  001D30  9F6D               	bcf	(_outPipes+3)& (0+255),7,b	;volatile
  8664                           
  8665                           ; BSR set to: 0
  8666                           ;usb_device.c: 1941: if(USBDeferStatusStagePacket == 0)
  8667  001D32  503E               	movf	_USBDeferStatusStagePacket,w,c	;volatile
  8668  001D34  A4D8               	btfss	status,2,c
  8669  001D36  0012               	return	
  8670                           
  8671                           ; BSR set to: 0
  8672                           ;usb_device.c: 1942: {
  8673                           ;usb_device.c: 1943: USBCtrlEPAllowStatusStage();
  8674  001D38  EC1D  F012         	call	_USBCtrlEPAllowStatusStage	;wreg free
  8675  001D3C  0012               	return	
  8676  001D3E                     __end_of_USBCtrlTrfRxService:
  8677                           	opt stack 0
  8678                           pclatu	equ	0xFFB
  8679                           pclath	equ	0xFFA
  8680                           tblptru	equ	0xFF8
  8681                           tblptrh	equ	0xFF7
  8682                           tblptrl	equ	0xFF6
  8683                           tablat	equ	0xFF5
  8684                           prodh	equ	0xFF4
  8685                           prodl	equ	0xFF3
  8686                           intcon	equ	0xFF2
  8687                           postinc0	equ	0xFEE
  8688                           fsr0h	equ	0xFEA
  8689                           fsr0l	equ	0xFE9
  8690                           wreg	equ	0xFE8
  8691                           indf1	equ	0xFE7
  8692                           fsr1h	equ	0xFE2
  8693                           fsr1l	equ	0xFE1
  8694                           bsr	equ	0xFE0
  8695                           indf2	equ	0xFDF
  8696                           postinc2	equ	0xFDE
  8697                           postdec2	equ	0xFDD
  8698                           plusw2	equ	0xFDB
  8699                           fsr2h	equ	0xFDA
  8700                           fsr2l	equ	0xFD9
  8701                           status	equ	0xFD8
  8702                           
  8703 ;; *************** function _USBCtrlEPAllowStatusStage *****************
  8704 ;; Defined at:
  8705 ;;		line 1416 in file "usb_device.c"
  8706 ;; Parameters:    Size  Location     Type
  8707 ;;		None
  8708 ;; Auto vars:     Size  Location     Type
  8709 ;;		None
  8710 ;; Return value:  Size  Location     Type
  8711 ;;                  1    wreg      void 
  8712 ;; Registers used:
  8713 ;;		wreg, fsr2l, fsr2h, status,2, status,0
  8714 ;; Tracked objects:
  8715 ;;		On entry : 0/0
  8716 ;;		On exit  : 0/0
  8717 ;;		Unchanged: 0/0
  8718 ;; Data sizes:     COMRAM   BANK0   BANK1   BANK2   BANK3   BANK4   BANK5   BANK6   BANK7
  8719 ;;      Params:         0       0       0       0       0       0       0       0       0
  8720 ;;      Locals:         0       0       0       0       0       0       0       0       0
  8721 ;;      Temps:          0       0       0       0       0       0       0       0       0
  8722 ;;      Totals:         0       0       0       0       0       0       0       0       0
  8723 ;;Total ram usage:        0 bytes
  8724 ;; Hardware stack levels used:    1
  8725 ;; This function calls:
  8726 ;;		Nothing
  8727 ;; This function is called by:
  8728 ;;		_USBDeviceTasks
  8729 ;;		_USBCtrlEPServiceComplete
  8730 ;;		_USBCtrlTrfRxService
  8731 ;; This function uses a non-reentrant model
  8732 ;;
  8733                           
  8734                           	psect	text42
  8735  00243A                     __ptext42:
  8736                           	opt stack 0
  8737  00243A                     _USBCtrlEPAllowStatusStage:
  8738                           	opt stack 21
  8739                           
  8740                           ;usb_device.c: 1423: if(USBStatusStageEnabledFlag1 == 0)
  8741                           
  8742                           ;incstack = 0
  8743  00243A  5040               	movf	_USBStatusStageEnabledFlag1,w,c	;volatile
  8744  00243C  A4D8               	btfss	status,2,c
  8745  00243E  0012               	return	
  8746                           
  8747                           ;usb_device.c: 1424: {
  8748                           ;usb_device.c: 1425: USBStatusStageEnabledFlag1 = 1;
  8749  002440  0E01               	movlw	1
  8750  002442  6E40               	movwf	_USBStatusStageEnabledFlag1,c	;volatile
  8751                           
  8752                           ;usb_device.c: 1426: if(USBStatusStageEnabledFlag2 == 0)
  8753  002444  5041               	movf	_USBStatusStageEnabledFlag2,w,c	;volatile
  8754  002446  A4D8               	btfss	status,2,c
  8755  002448  0012               	return	
  8756                           
  8757                           ;usb_device.c: 1427: {
  8758                           ;usb_device.c: 1428: USBStatusStageEnabledFlag2 = 1;
  8759  00244A  0E01               	movlw	1
  8760  00244C  6E41               	movwf	_USBStatusStageEnabledFlag2,c	;volatile
  8761                           
  8762                           ;usb_device.c: 1432: if(controlTransferState == 2)
  8763  00244E  0E02               	movlw	2
  8764  002450  1843               	xorwf	_controlTransferState,w,c	;volatile
  8765  002452  A4D8               	btfss	status,2,c
  8766  002454  D016               	goto	i2l3071
  8767                           
  8768                           ;usb_device.c: 1433: {
  8769                           ;usb_device.c: 1434: pBDTEntryIn[0]->CNT = 0;
  8770  002456  0100               	movlb	0	; () banked
  8771  002458  EE20 F001          	lfsr	2,1
  8772  00245C  5178               	movf	_pBDTEntryIn& (0+255),w,b
  8773  00245E  26D9               	addwf	fsr2l,f,c
  8774  002460  5179               	movf	(_pBDTEntryIn+1)& (0+255),w,b
  8775  002462  22DA               	addwfc	fsr2h,f,c
  8776  002464  0E00               	movlw	0
  8777  002466  6EDF               	movwf	indf2,c
  8778                           
  8779                           ; BSR set to: 0
  8780                           ;usb_device.c: 1435: pBDTEntryIn[0]->STAT.Val = 0x40|(0x08 & 0x08);
  8781  002468  C078  FFD9         	movff	_pBDTEntryIn,fsr2l
  8782  00246C  C079  FFDA         	movff	_pBDTEntryIn+1,fsr2h
  8783  002470  0E48               	movlw	72
  8784  002472  6EDF               	movwf	indf2,c
  8785                           
  8786                           ; BSR set to: 0
  8787                           ;usb_device.c: 1436: pBDTEntryIn[0]->STAT.Val |= 0x80;
  8788  002474  C078  FFD9         	movff	_pBDTEntryIn,fsr2l
  8789  002478  C079  FFDA         	movff	_pBDTEntryIn+1,fsr2h
  8790  00247C  0E00               	movlw	0
  8791  00247E  8EDB               	bsf	plusw2,7,c
  8792                           
  8793                           ;usb_device.c: 1437: }
  8794  002480  0012               	return	
  8795  002482                     i2l3071:
  8796                           
  8797                           ;usb_device.c: 1438: else if(controlTransferState == 1)
  8798  002482  0443               	decf	_controlTransferState,w,c	;volatile
  8799  002484  A4D8               	btfss	status,2,c
  8800  002486  0012               	return	
  8801                           
  8802                           ;usb_device.c: 1439: {
  8803                           ;usb_device.c: 1440: BothEP0OutUOWNsSet = 0;
  8804  002488  0E00               	movlw	0
  8805  00248A  6E39               	movwf	_BothEP0OutUOWNsSet,c	;volatile
  8806                           
  8807                           ;usb_device.c: 1445: pBDTEntryEP0OutCurrent->CNT = 8;
  8808  00248C  EE20 F001          	lfsr	2,1
  8809  002490  5033               	movf	_pBDTEntryEP0OutCurrent,w,c
  8810  002492  26D9               	addwf	fsr2l,f,c
  8811  002494  5034               	movf	_pBDTEntryEP0OutCurrent+1,w,c
  8812  002496  22DA               	addwfc	fsr2h,f,c
  8813  002498  0E08               	movlw	8
  8814  00249A  6EDF               	movwf	indf2,c
  8815                           
  8816                           ;usb_device.c: 1446: pBDTEntryEP0OutCurrent->ADR = ((uint16_t)(&SetupPkt));
  8817  00249C  EE20 F002          	lfsr	2,2
  8818  0024A0  5033               	movf	_pBDTEntryEP0OutCurrent,w,c
  8819  0024A2  26D9               	addwf	fsr2l,f,c
  8820  0024A4  5034               	movf	_pBDTEntryEP0OutCurrent+1,w,c
  8821  0024A6  22DA               	addwfc	fsr2h,f,c
  8822  0024A8  0E30               	movlw	48
  8823  0024AA  6EDE               	movwf	postinc2,c
  8824  0024AC  0E04               	movlw	4
  8825  0024AE  6EDD               	movwf	postdec2,c
  8826                           
  8827                           ;usb_device.c: 1447: pBDTEntryEP0OutCurrent->STAT.Val = 0x04;
  8828  0024B0  C033  FFD9         	movff	_pBDTEntryEP0OutCurrent,fsr2l
  8829  0024B4  C034  FFDA         	movff	_pBDTEntryEP0OutCurrent+1,fsr2h
  8830  0024B8  0E04               	movlw	4
  8831  0024BA  6EDF               	movwf	indf2,c
  8832                           
  8833                           ;usb_device.c: 1448: pBDTEntryEP0OutCurrent->STAT.Val |= 0x80;
  8834  0024BC  C033  FFD9         	movff	_pBDTEntryEP0OutCurrent,fsr2l
  8835  0024C0  C034  FFDA         	movff	_pBDTEntryEP0OutCurrent+1,fsr2h
  8836  0024C4  0E00               	movlw	0
  8837  0024C6  8EDB               	bsf	plusw2,7,c
  8838                           
  8839                           ;usb_device.c: 1449: BothEP0OutUOWNsSet = 1;
  8840  0024C8  0E01               	movlw	1
  8841  0024CA  6E39               	movwf	_BothEP0OutUOWNsSet,c	;volatile
  8842                           
  8843                           ;usb_device.c: 1453: pBDTEntryEP0OutNext->CNT = 8;
  8844  0024CC  EE20 F001          	lfsr	2,1
  8845  0024D0  5035               	movf	_pBDTEntryEP0OutNext,w,c
  8846  0024D2  26D9               	addwf	fsr2l,f,c
  8847  0024D4  5036               	movf	_pBDTEntryEP0OutNext+1,w,c
  8848  0024D6  22DA               	addwfc	fsr2h,f,c
  8849  0024D8  0E08               	movlw	8
  8850  0024DA  6EDF               	movwf	indf2,c
  8851                           
  8852                           ;usb_device.c: 1454: pBDTEntryEP0OutNext->ADR = ((uint16_t)(&SetupPkt));
  8853  0024DC  EE20 F002          	lfsr	2,2
  8854  0024E0  5035               	movf	_pBDTEntryEP0OutNext,w,c
  8855  0024E2  26D9               	addwf	fsr2l,f,c
  8856  0024E4  5036               	movf	_pBDTEntryEP0OutNext+1,w,c
  8857  0024E6  22DA               	addwfc	fsr2h,f,c
  8858  0024E8  0E30               	movlw	48
  8859  0024EA  6EDE               	movwf	postinc2,c
  8860  0024EC  0E04               	movlw	4
  8861  0024EE  6EDD               	movwf	postdec2,c
  8862                           
  8863                           ;usb_device.c: 1455: pBDTEntryEP0OutNext->STAT.Val = 0x80;
  8864  0024F0  C035  FFD9         	movff	_pBDTEntryEP0OutNext,fsr2l
  8865  0024F4  C036  FFDA         	movff	_pBDTEntryEP0OutNext+1,fsr2h
  8866  0024F8  0E80               	movlw	128
  8867  0024FA  6EDF               	movwf	indf2,c
  8868  0024FC  0012               	return	
  8869  0024FE                     __end_of_USBCtrlEPAllowStatusStage:
  8870                           	opt stack 0
  8871                           pclatu	equ	0xFFB
  8872                           pclath	equ	0xFFA
  8873                           tblptru	equ	0xFF8
  8874                           tblptrh	equ	0xFF7
  8875                           tblptrl	equ	0xFF6
  8876                           tablat	equ	0xFF5
  8877                           prodh	equ	0xFF4
  8878                           prodl	equ	0xFF3
  8879                           intcon	equ	0xFF2
  8880                           postinc0	equ	0xFEE
  8881                           fsr0h	equ	0xFEA
  8882                           fsr0l	equ	0xFE9
  8883                           wreg	equ	0xFE8
  8884                           indf1	equ	0xFE7
  8885                           fsr1h	equ	0xFE2
  8886                           fsr1l	equ	0xFE1
  8887                           bsr	equ	0xFE0
  8888                           indf2	equ	0xFDF
  8889                           postinc2	equ	0xFDE
  8890                           postdec2	equ	0xFDD
  8891                           plusw2	equ	0xFDB
  8892                           fsr2h	equ	0xFDA
  8893                           fsr2l	equ	0xFD9
  8894                           status	equ	0xFD8
  8895                           
  8896 ;; *************** function _USBCtrlTrfInHandler *****************
  8897 ;; Defined at:
  8898 ;;		line 2595 in file "usb_device.c"
  8899 ;; Parameters:    Size  Location     Type
  8900 ;;		None
  8901 ;; Auto vars:     Size  Location     Type
  8902 ;;  lastDTS         1    1[COMRAM] unsigned char 
  8903 ;; Return value:  Size  Location     Type
  8904 ;;                  1    wreg      void 
  8905 ;; Registers used:
  8906 ;;		wreg, fsr1l, fsr1h, fsr2l, fsr2h, status,2, status,0, tblptrl, tblptrh, tblptru, cstack
  8907 ;; Tracked objects:
  8908 ;;		On entry : 0/0
  8909 ;;		On exit  : 0/0
  8910 ;;		Unchanged: 0/0
  8911 ;; Data sizes:     COMRAM   BANK0   BANK1   BANK2   BANK3   BANK4   BANK5   BANK6   BANK7
  8912 ;;      Params:         0       0       0       0       0       0       0       0       0
  8913 ;;      Locals:         1       0       0       0       0       0       0       0       0
  8914 ;;      Temps:          0       0       0       0       0       0       0       0       0
  8915 ;;      Totals:         1       0       0       0       0       0       0       0       0
  8916 ;;Total ram usage:        1 bytes
  8917 ;; Hardware stack levels used:    1
  8918 ;; Hardware stack levels required when called:    1
  8919 ;; This function calls:
  8920 ;;		_USBCtrlTrfTxService
  8921 ;; This function is called by:
  8922 ;;		_USBCtrlEPService
  8923 ;; This function uses a non-reentrant model
  8924 ;;
  8925                           
  8926                           	psect	text43
  8927  0024FE                     __ptext43:
  8928                           	opt stack 0
  8929  0024FE                     _USBCtrlTrfInHandler:
  8930                           	opt stack 22
  8931                           
  8932                           ;usb_device.c: 2597: uint8_t lastDTS;
  8933                           ;usb_device.c: 2599: lastDTS = pBDTEntryIn[0]->STAT.DTS;
  8934                           
  8935                           ;incstack = 0
  8936  0024FE  C078  FFD9         	movff	_pBDTEntryIn,fsr2l
  8937  002502  C079  FFDA         	movff	_pBDTEntryIn+1,fsr2h
  8938  002506  0100               	movlb	0	; () banked
  8939  002508  0E00               	movlw	0
  8940  00250A  BCDF               	btfsc	indf2,6,c
  8941  00250C  0E01               	movlw	1
  8942  00250E  6E02               	movwf	USBCtrlTrfInHandler@lastDTS,c
  8943                           
  8944                           ; BSR set to: 0
  8945                           ;usb_device.c: 2602: ((uint8_t_VAL*)&pBDTEntryIn[0])->Val ^= 0x0004;
  8946  002510  0E04               	movlw	4
  8947  002512  0100               	movlb	0	; () banked
  8948  002514  1B78               	xorwf	_pBDTEntryIn& (0+255),f,b
  8949                           
  8950                           ; BSR set to: 0
  8951                           ;usb_device.c: 2607: if(USBDeviceState == ADR_PENDING_STATE)
  8952  002516  0E08               	movlw	8
  8953  002518  183F               	xorwf	_USBDeviceState,w,c	;volatile
  8954  00251A  A4D8               	btfss	status,2,c
  8955  00251C  D00B               	goto	i2l3511
  8956                           
  8957                           ; BSR set to: 0
  8958                           ;usb_device.c: 2608: {
  8959                           ;usb_device.c: 2609: UADDR = (SetupPkt.bDevADR & 0x7F);
  8960  00251E  0104               	movlb	4	; () banked
  8961  002520  5132               	movf	50,w,b	;volatile
  8962  002522  0B7F               	andlw	127
  8963  002524  6E6E               	movwf	3950,c	;volatile
  8964                           
  8965                           ; BSR set to: 4
  8966                           ;usb_device.c: 2610: if(UADDR != 0u)
  8967  002526  506E               	movf	3950,w,c	;volatile
  8968  002528  B4D8               	btfsc	status,2,c
  8969  00252A  D002               	goto	i2l3509
  8970                           
  8971                           ; BSR set to: 4
  8972                           ;usb_device.c: 2611: {
  8973                           ;usb_device.c: 2612: USBDeviceState=ADDRESS_STATE;
  8974  00252C  0E10               	movlw	16
  8975  00252E  D001               	goto	L16
  8976  002530                     i2l3509:
  8977                           
  8978                           ; BSR set to: 4
  8979                           ;usb_device.c: 2614: else
  8980                           ;usb_device.c: 2615: {
  8981                           ;usb_device.c: 2616: USBDeviceState=DEFAULT_STATE;
  8982  002530  0E04               	movlw	4
  8983  002532                     L16:
  8984  002532  6E3F               	movwf	_USBDeviceState,c	;volatile
  8985  002534                     i2l3511:
  8986                           
  8987                           ;usb_device.c: 2617: }
  8988                           ;usb_device.c: 2618: }
  8989                           ;usb_device.c: 2621: if(controlTransferState == 1)
  8990  002534  0443               	decf	_controlTransferState,w,c	;volatile
  8991  002536  A4D8               	btfss	status,2,c
  8992  002538  D03B               	goto	i2l561
  8993                           
  8994                           ;usb_device.c: 2622: {
  8995                           ;usb_device.c: 2623: pBDTEntryIn[0]->ADR = ((uint16_t)(CtrlTrfData));
  8996  00253A  0100               	movlb	0	; () banked
  8997  00253C  EE20 F002          	lfsr	2,2
  8998  002540  5178               	movf	_pBDTEntryIn& (0+255),w,b
  8999  002542  26D9               	addwf	fsr2l,f,c
  9000  002544  5179               	movf	(_pBDTEntryIn+1)& (0+255),w,b
  9001  002546  22DA               	addwfc	fsr2h,f,c
  9002  002548  0E38               	movlw	56
  9003  00254A  6EDE               	movwf	postinc2,c
  9004  00254C  0E04               	movlw	4
  9005  00254E  6EDD               	movwf	postdec2,c
  9006                           
  9007                           ; BSR set to: 0
  9008                           ;usb_device.c: 2624: USBCtrlTrfTxService();
  9009  002550  ECE4  F010         	call	_USBCtrlTrfTxService	;wreg free
  9010                           
  9011                           ;usb_device.c: 2630: if(shortPacketStatus == 2)
  9012  002554  0E02               	movlw	2
  9013  002556  1846               	xorwf	_shortPacketStatus,w,c	;volatile
  9014  002558  A4D8               	btfss	status,2,c
  9015  00255A  D00D               	goto	i2l3523
  9016                           
  9017                           ;usb_device.c: 2631: {
  9018                           ;usb_device.c: 2634: pBDTEntryIn[0]->STAT.Val = 0x04;
  9019  00255C  C078  FFD9         	movff	_pBDTEntryIn,fsr2l
  9020  002560  C079  FFDA         	movff	_pBDTEntryIn+1,fsr2h
  9021  002564  0E04               	movlw	4
  9022  002566  6EDF               	movwf	indf2,c
  9023                           
  9024                           ;usb_device.c: 2635: pBDTEntryIn[0]->STAT.Val |= 0x80;
  9025  002568  C078  FFD9         	movff	_pBDTEntryIn,fsr2l
  9026  00256C  C079  FFDA         	movff	_pBDTEntryIn+1,fsr2h
  9027  002570  0E00               	movlw	0
  9028  002572  8EDB               	bsf	plusw2,7,c
  9029                           
  9030                           ;usb_device.c: 2636: }
  9031  002574  0012               	return	
  9032  002576                     i2l3523:
  9033                           
  9034                           ;usb_device.c: 2637: else
  9035                           ;usb_device.c: 2638: {
  9036                           ;usb_device.c: 2639: if(lastDTS == 0)
  9037  002576  5002               	movf	USBCtrlTrfInHandler@lastDTS,w,c
  9038  002578  A4D8               	btfss	status,2,c
  9039  00257A  D00D               	goto	i2l3529
  9040                           
  9041                           ;usb_device.c: 2640: {
  9042                           ;usb_device.c: 2641: pBDTEntryIn[0]->STAT.Val = 0x40|(0x08 & 0x08);
  9043  00257C  C078  FFD9         	movff	_pBDTEntryIn,fsr2l
  9044  002580  C079  FFDA         	movff	_pBDTEntryIn+1,fsr2h
  9045  002584  0E48               	movlw	72
  9046  002586  6EDF               	movwf	indf2,c
  9047                           
  9048                           ;usb_device.c: 2642: pBDTEntryIn[0]->STAT.Val |= 0x80;
  9049  002588  C078  FFD9         	movff	_pBDTEntryIn,fsr2l
  9050  00258C  C079  FFDA         	movff	_pBDTEntryIn+1,fsr2h
  9051  002590  0E00               	movlw	0
  9052  002592  8EDB               	bsf	plusw2,7,c
  9053                           
  9054                           ;usb_device.c: 2643: }
  9055  002594  0012               	return	
  9056  002596                     i2l3529:
  9057                           
  9058                           ;usb_device.c: 2644: else
  9059                           ;usb_device.c: 2645: {
  9060                           ;usb_device.c: 2646: pBDTEntryIn[0]->STAT.Val = 0x00|(0x08 & 0x08);
  9061  002596  C078  FFD9         	movff	_pBDTEntryIn,fsr2l
  9062  00259A  C079  FFDA         	movff	_pBDTEntryIn+1,fsr2h
  9063  00259E  0E08               	movlw	8
  9064  0025A0  6EDF               	movwf	indf2,c
  9065                           
  9066                           ;usb_device.c: 2647: pBDTEntryIn[0]->STAT.Val |= 0x80;
  9067  0025A2  C078  FFD9         	movff	_pBDTEntryIn,fsr2l
  9068  0025A6  C079  FFDA         	movff	_pBDTEntryIn+1,fsr2h
  9069  0025AA  0E00               	movlw	0
  9070  0025AC  8EDB               	bsf	plusw2,7,c
  9071                           
  9072                           ;usb_device.c: 2648: }
  9073                           ;usb_device.c: 2649: }
  9074                           ;usb_device.c: 2650: }
  9075  0025AE  0012               	return	
  9076  0025B0                     i2l561:
  9077                           
  9078                           ;usb_device.c: 2651: else
  9079                           ;usb_device.c: 2652: {
  9080                           ;usb_device.c: 2656: if(outPipes[0].info.bits.busy == 1)
  9081  0025B0  0100               	movlb	0	; () banked
  9082  0025B2  AF6D               	btfss	(_outPipes+3)& (0+255),7,b	;volatile
  9083  0025B4  D002               	goto	i2l3535
  9084                           
  9085                           ; BSR set to: 0
  9086                           ;usb_device.c: 2661: }
  9087                           ;usb_device.c: 2662: outPipes[0].info.bits.busy = 0;
  9088                           
  9089                           ; BSR set to: 0
  9090                           ;usb_device.c: 2659: {
  9091                           ;usb_device.c: 2660: outPipes[0].pFunc();
  9092  0025B6  0100               	movlb	0	; () banked
  9093  0025B8  9F6D               	bcf	(_outPipes+3)& (0+255),7,b	;volatile
  9094  0025BA                     i2l3535:
  9095                           
  9096                           ; BSR set to: 0
  9097                           ;usb_device.c: 2663: }
  9098                           ;usb_device.c: 2665: controlTransferState = 0;
  9099  0025BA  0E00               	movlw	0
  9100  0025BC  6E43               	movwf	_controlTransferState,c	;volatile
  9101  0025BE  0012               	return	
  9102  0025C0                     __end_of_USBCtrlTrfInHandler:
  9103                           	opt stack 0
  9104                           pclatu	equ	0xFFB
  9105                           pclath	equ	0xFFA
  9106                           tblptru	equ	0xFF8
  9107                           tblptrh	equ	0xFF7
  9108                           tblptrl	equ	0xFF6
  9109                           tablat	equ	0xFF5
  9110                           prodh	equ	0xFF4
  9111                           prodl	equ	0xFF3
  9112                           intcon	equ	0xFF2
  9113                           postinc0	equ	0xFEE
  9114                           fsr0h	equ	0xFEA
  9115                           fsr0l	equ	0xFE9
  9116                           wreg	equ	0xFE8
  9117                           indf1	equ	0xFE7
  9118                           fsr1h	equ	0xFE2
  9119                           fsr1l	equ	0xFE1
  9120                           bsr	equ	0xFE0
  9121                           indf2	equ	0xFDF
  9122                           postinc2	equ	0xFDE
  9123                           postdec2	equ	0xFDD
  9124                           plusw2	equ	0xFDB
  9125                           fsr2h	equ	0xFDA
  9126                           fsr2l	equ	0xFD9
  9127                           status	equ	0xFD8
  9128                           
  9129 ;; *************** function _USBCtrlTrfTxService *****************
  9130 ;; Defined at:
  9131 ;;		line 1771 in file "usb_device.c"
  9132 ;; Parameters:    Size  Location     Type
  9133 ;;		None
  9134 ;; Auto vars:     Size  Location     Type
  9135 ;;  byteToSend      1    0[COMRAM] unsigned char 
  9136 ;; Return value:  Size  Location     Type
  9137 ;;                  1    wreg      void 
  9138 ;; Registers used:
  9139 ;;		wreg, fsr1l, fsr1h, fsr2l, fsr2h, status,2, status,0, tblptrl, tblptrh, tblptru
  9140 ;; Tracked objects:
  9141 ;;		On entry : 0/0
  9142 ;;		On exit  : 0/0
  9143 ;;		Unchanged: 0/0
  9144 ;; Data sizes:     COMRAM   BANK0   BANK1   BANK2   BANK3   BANK4   BANK5   BANK6   BANK7
  9145 ;;      Params:         0       0       0       0       0       0       0       0       0
  9146 ;;      Locals:         1       0       0       0       0       0       0       0       0
  9147 ;;      Temps:          0       0       0       0       0       0       0       0       0
  9148 ;;      Totals:         1       0       0       0       0       0       0       0       0
  9149 ;;Total ram usage:        1 bytes
  9150 ;; Hardware stack levels used:    1
  9151 ;; This function calls:
  9152 ;;		Nothing
  9153 ;; This function is called by:
  9154 ;;		_USBCtrlEPAllowDataStage
  9155 ;;		_USBCtrlTrfInHandler
  9156 ;; This function uses a non-reentrant model
  9157 ;;
  9158                           
  9159                           	psect	text44
  9160  0021C8                     __ptext44:
  9161                           	opt stack 0
  9162  0021C8                     _USBCtrlTrfTxService:
  9163                           	opt stack 20
  9164                           
  9165                           ;usb_device.c: 1773: uint8_t byteToSend;
  9166                           ;usb_device.c: 1777: byteToSend = 8;
  9167                           
  9168                           ;incstack = 0
  9169  0021C8  0E08               	movlw	8
  9170  0021CA  6E01               	movwf	USBCtrlTrfTxService@byteToSend,c
  9171                           
  9172                           ;usb_device.c: 1778: if(inPipes[0].wCount.Val < (uint8_t)8)
  9173  0021CC  0100               	movlb	0	; () banked
  9174  0021CE  5177               	movf	(_inPipes+5)& (0+255),w,b	;volatile
  9175  0021D0  E111               	bnz	i2l3019
  9176  0021D2  0E08               	movlw	8
  9177  0021D4  0100               	movlb	0	; () banked
  9178  0021D6  5D76               	subwf	(_inPipes+4)& (0+255),w,b	;volatile
  9179  0021D8  B0D8               	btfsc	status,0,c
  9180  0021DA  D00C               	goto	i2l3019
  9181                           
  9182                           ; BSR set to: 0
  9183                           ;usb_device.c: 1779: {
  9184                           ;usb_device.c: 1780: byteToSend = inPipes[0].wCount.Val;
  9185  0021DC  C076  F001         	movff	_inPipes+4,USBCtrlTrfTxService@byteToSend	;volatile
  9186                           
  9187                           ; BSR set to: 0
  9188                           ;usb_device.c: 1787: if(shortPacketStatus == 0)
  9189  0021E0  5046               	movf	_shortPacketStatus,w,c	;volatile
  9190  0021E2  A4D8               	btfss	status,2,c
  9191  0021E4  D002               	goto	i2l3015
  9192                           
  9193                           ; BSR set to: 0
  9194                           ;usb_device.c: 1788: {
  9195                           ;usb_device.c: 1789: shortPacketStatus = 1;
  9196  0021E6  0E01               	movlw	1
  9197  0021E8  D004               	goto	L17
  9198  0021EA                     i2l3015:
  9199                           
  9200                           ; BSR set to: 0
  9201                           ;usb_device.c: 1791: else if(shortPacketStatus == 1)
  9202  0021EA  0446               	decf	_shortPacketStatus,w,c	;volatile
  9203  0021EC  A4D8               	btfss	status,2,c
  9204  0021EE  D002               	goto	i2l3019
  9205                           
  9206                           ; BSR set to: 0
  9207                           ;usb_device.c: 1792: {
  9208                           ;usb_device.c: 1793: shortPacketStatus = 2;
  9209  0021F0  0E02               	movlw	2
  9210  0021F2                     L17:
  9211  0021F2  6E46               	movwf	_shortPacketStatus,c	;volatile
  9212  0021F4                     i2l3019:
  9213                           
  9214                           ; BSR set to: 0
  9215                           ;usb_device.c: 1794: }
  9216                           ;usb_device.c: 1795: }
  9217                           ;usb_device.c: 1799: inPipes[0].wCount.Val -= byteToSend;
  9218  0021F4  5001               	movf	USBCtrlTrfTxService@byteToSend,w,c
  9219  0021F6  0100               	movlb	0	; () banked
  9220  0021F8  5F76               	subwf	(_inPipes+4)& (0+255),f,b	;volatile
  9221  0021FA  0E00               	movlw	0
  9222  0021FC  5B77               	subwfb	(_inPipes+5)& (0+255),f,b	;volatile
  9223                           
  9224                           ; BSR set to: 0
  9225                           ;usb_device.c: 1804: pBDTEntryIn[0]->CNT = byteToSend;
  9226  0021FE  0100               	movlb	0	; () banked
  9227  002200  EE20 F001          	lfsr	2,1
  9228  002204  5178               	movf	_pBDTEntryIn& (0+255),w,b
  9229  002206  26D9               	addwf	fsr2l,f,c
  9230  002208  5179               	movf	(_pBDTEntryIn+1)& (0+255),w,b
  9231  00220A  22DA               	addwfc	fsr2h,f,c
  9232  00220C  C001  FFDF         	movff	USBCtrlTrfTxService@byteToSend,indf2
  9233                           
  9234                           ; BSR set to: 0
  9235                           ;usb_device.c: 1808: pDst = (volatile uint8_t*)CtrlTrfData;
  9236  002210  0E38               	movlw	56
  9237  002212  6E37               	movwf	_pDst,c
  9238  002214  0E04               	movlw	4
  9239  002216  6E38               	movwf	_pDst+1,c
  9240                           
  9241                           ; BSR set to: 0
  9242                           ;usb_device.c: 1809: if(inPipes[0].info.bits.ctrl_trf_mem == 0x00)
  9243  002218  0100               	movlb	0	; () banked
  9244  00221A  A175               	btfss	(_inPipes+3)& (0+255),0,b	;volatile
  9245  00221C  D01C               	goto	i2l3037
  9246  00221E  D03A               	goto	i2l3047
  9247  002220                     i2l3029:
  9248                           
  9249                           ; BSR set to: 0
  9250                           ;usb_device.c: 1812: {
  9251                           ;usb_device.c: 1813: *pDst++ = *inPipes[0].pSrc.bRom++;
  9252  002220  C072  FFF6         	movff	_inPipes,tblptrl	;volatile
  9253  002224  C073  FFF7         	movff	_inPipes+1,tblptrh	;volatile
  9254  002228  6AF8               	clrf	tblptru,c
  9255  00222A  C037  FFD9         	movff	_pDst,fsr2l
  9256  00222E  C038  FFDA         	movff	_pDst+1,fsr2h
  9257  002232  0E07               	movlw	(high __ramtop+-1)
  9258  002234  64F7               	cpfsgt	tblptrh,c
  9259  002236  D003               	bra	i2u191_47
  9260  002238  0008               	tblrd		*
  9261  00223A  50F5               	movf	tablat,w,c
  9262  00223C  D005               	bra	i2u191_40
  9263  00223E                     i2u191_47:
  9264  00223E  CFF6 FFE1          	movff	tblptrl,fsr1l
  9265  002242  CFF7 FFE2          	movff	tblptrh,fsr1h
  9266  002246  50E7               	movf	indf1,w,c
  9267  002248                     i2u191_40:
  9268  002248  6EDF               	movwf	indf2,c
  9269  00224A  0100               	movlb	0	; () banked
  9270  00224C  4B72               	infsnz	_inPipes& (0+255),f,b	;volatile
  9271  00224E  2B73               	incf	(_inPipes+1)& (0+255),f,b	;volatile
  9272                           
  9273                           ; BSR set to: 0
  9274  002250  4A37               	infsnz	_pDst,f,c
  9275  002252  2A38               	incf	_pDst+1,f,c
  9276                           
  9277                           ; BSR set to: 0
  9278                           ;usb_device.c: 1814: byteToSend--;
  9279  002254  0601               	decf	USBCtrlTrfTxService@byteToSend,f,c
  9280  002256                     i2l3037:
  9281                           
  9282                           ; BSR set to: 0
  9283  002256  5001               	movf	USBCtrlTrfTxService@byteToSend,w,c
  9284  002258  B4D8               	btfsc	status,2,c
  9285  00225A  0012               	return	
  9286  00225C  D7E1               	goto	i2l3029
  9287  00225E                     i2l3039:
  9288                           
  9289                           ; BSR set to: 0
  9290                           ;usb_device.c: 1820: {
  9291                           ;usb_device.c: 1821: *pDst++ = *inPipes[0].pSrc.bRam++;
  9292  00225E  C072  FFF6         	movff	_inPipes,tblptrl	;volatile
  9293  002262  C073  FFF7         	movff	_inPipes+1,tblptrh	;volatile
  9294  002266  6AF8               	clrf	tblptru,c
  9295  002268  C037  FFD9         	movff	_pDst,fsr2l
  9296  00226C  C038  FFDA         	movff	_pDst+1,fsr2h
  9297  002270  0E07               	movlw	(high __ramtop+-1)
  9298  002272  64F7               	cpfsgt	tblptrh,c
  9299  002274  D003               	bra	i2u193_47
  9300  002276  0008               	tblrd		*
  9301  002278  50F5               	movf	tablat,w,c
  9302  00227A  D005               	bra	i2u193_40
  9303  00227C                     i2u193_47:
  9304  00227C  CFF6 FFE1          	movff	tblptrl,fsr1l
  9305  002280  CFF7 FFE2          	movff	tblptrh,fsr1h
  9306  002284  50E7               	movf	indf1,w,c
  9307  002286                     i2u193_40:
  9308  002286  6EDF               	movwf	indf2,c
  9309  002288  0100               	movlb	0	; () banked
  9310  00228A  4B72               	infsnz	_inPipes& (0+255),f,b	;volatile
  9311  00228C  2B73               	incf	(_inPipes+1)& (0+255),f,b	;volatile
  9312                           
  9313                           ; BSR set to: 0
  9314  00228E  4A37               	infsnz	_pDst,f,c
  9315  002290  2A38               	incf	_pDst+1,f,c
  9316                           
  9317                           ; BSR set to: 0
  9318                           ;usb_device.c: 1822: byteToSend--;
  9319  002292  0601               	decf	USBCtrlTrfTxService@byteToSend,f,c
  9320  002294                     i2l3047:
  9321                           
  9322                           ; BSR set to: 0
  9323  002294  5001               	movf	USBCtrlTrfTxService@byteToSend,w,c
  9324  002296  B4D8               	btfsc	status,2,c
  9325  002298  0012               	return	
  9326  00229A  D7E1               	goto	i2l3039
  9327  00229C                     __end_of_USBCtrlTrfTxService:
  9328                           	opt stack 0
  9329                           pclatu	equ	0xFFB
  9330                           pclath	equ	0xFFA
  9331                           tblptru	equ	0xFF8
  9332                           tblptrh	equ	0xFF7
  9333                           tblptrl	equ	0xFF6
  9334                           tablat	equ	0xFF5
  9335                           prodh	equ	0xFF4
  9336                           prodl	equ	0xFF3
  9337                           intcon	equ	0xFF2
  9338                           postinc0	equ	0xFEE
  9339                           fsr0h	equ	0xFEA
  9340                           fsr0l	equ	0xFE9
  9341                           wreg	equ	0xFE8
  9342                           indf1	equ	0xFE7
  9343                           fsr1h	equ	0xFE2
  9344                           fsr1l	equ	0xFE1
  9345                           bsr	equ	0xFE0
  9346                           indf2	equ	0xFDF
  9347                           postinc2	equ	0xFDE
  9348                           postdec2	equ	0xFDD
  9349                           plusw2	equ	0xFDB
  9350                           fsr2h	equ	0xFDA
  9351                           fsr2l	equ	0xFD9
  9352                           status	equ	0xFD8
  9353                           pclatu	equ	0xFFB
  9354                           pclath	equ	0xFFA
  9355                           tblptru	equ	0xFF8
  9356                           tblptrh	equ	0xFF7
  9357                           tblptrl	equ	0xFF6
  9358                           tablat	equ	0xFF5
  9359                           prodh	equ	0xFF4
  9360                           prodl	equ	0xFF3
  9361                           intcon	equ	0xFF2
  9362                           postinc0	equ	0xFEE
  9363                           fsr0h	equ	0xFEA
  9364                           fsr0l	equ	0xFE9
  9365                           wreg	equ	0xFE8
  9366                           indf1	equ	0xFE7
  9367                           fsr1h	equ	0xFE2
  9368                           fsr1l	equ	0xFE1
  9369                           bsr	equ	0xFE0
  9370                           indf2	equ	0xFDF
  9371                           postinc2	equ	0xFDE
  9372                           postdec2	equ	0xFDD
  9373                           plusw2	equ	0xFDB
  9374                           fsr2h	equ	0xFDA
  9375                           fsr2l	equ	0xFD9
  9376                           status	equ	0xFD8
  9377                           
  9378                           	psect	rparam
  9379  0000                     pclatu	equ	0xFFB
  9380                           pclath	equ	0xFFA
  9381                           tblptru	equ	0xFF8
  9382                           tblptrh	equ	0xFF7
  9383                           tblptrl	equ	0xFF6
  9384                           tablat	equ	0xFF5
  9385                           prodh	equ	0xFF4
  9386                           prodl	equ	0xFF3
  9387                           intcon	equ	0xFF2
  9388                           postinc0	equ	0xFEE
  9389                           fsr0h	equ	0xFEA
  9390                           fsr0l	equ	0xFE9
  9391                           wreg	equ	0xFE8
  9392                           indf1	equ	0xFE7
  9393                           fsr1h	equ	0xFE2
  9394                           fsr1l	equ	0xFE1
  9395                           bsr	equ	0xFE0
  9396                           indf2	equ	0xFDF
  9397                           postinc2	equ	0xFDE
  9398                           postdec2	equ	0xFDD
  9399                           plusw2	equ	0xFDB
  9400                           fsr2h	equ	0xFDA
  9401                           fsr2l	equ	0xFD9
  9402                           status	equ	0xFD8
  9403                           
  9404                           	psect	temp
  9405  000054                     btemp:
  9406                           	opt stack 0
  9407  000054                     	ds	1
  9408  0000                     int$flags	set	btemp
  9409                           pclatu	equ	0xFFB
  9410                           pclath	equ	0xFFA
  9411                           tblptru	equ	0xFF8
  9412                           tblptrh	equ	0xFF7
  9413                           tblptrl	equ	0xFF6
  9414                           tablat	equ	0xFF5
  9415                           prodh	equ	0xFF4
  9416                           prodl	equ	0xFF3
  9417                           intcon	equ	0xFF2
  9418                           postinc0	equ	0xFEE
  9419                           fsr0h	equ	0xFEA
  9420                           fsr0l	equ	0xFE9
  9421                           wreg	equ	0xFE8
  9422                           indf1	equ	0xFE7
  9423                           fsr1h	equ	0xFE2
  9424                           fsr1l	equ	0xFE1
  9425                           bsr	equ	0xFE0
  9426                           indf2	equ	0xFDF
  9427                           postinc2	equ	0xFDE
  9428                           postdec2	equ	0xFDD
  9429                           plusw2	equ	0xFDB
  9430                           fsr2h	equ	0xFDA
  9431                           fsr2l	equ	0xFD9
  9432                           status	equ	0xFD8


Data Sizes:
    Strings     0
    Constant    201
    Data        0
    BSS         234
    Persistent  0
    Stack       0

Auto Spaces:
    Space          Size  Autos    Used
    COMRAM           94     44      83
    BANK0           160     17     148
    BANK1           256     16      80
    BANK2           256      0       0
    BANK3           256      0       0
    BANK4           192      0       0
    BANK5           128      0       0
    BANK6           256      0       0
    BANK7           256      0       0

Pointer List with Targets:

    USER_USB_CALLBACK_EVENT_HANDLER@pdata	PTR void  size(2) Largest target is 48
		 -> USTATcopy(COMRAM[1]), USBActiveConfiguration(COMRAM[1]), NULL(NULL[0]), BDT(BIGRAMl[48]), 

    memset@p1	PTR void  size(2) Largest target is 48
		 -> USBAlternateInterface(COMRAM[2]), BDT(BIGRAMl[48]), UEP1(SFR[1]), 

    memset@p	PTR unsigned char  size(2) Largest target is 48
		 -> USBAlternateInterface(COMRAM[2]), BDT(BIGRAMl[48]), UEP1(SFR[1]), 

    putUSBUSART@data	PTR unsigned char  size(2) Largest target is 64
		 -> writeBuffer(BANK0[64]), ad(BANK0[3]), 

    getsUSBUSART@buffer	PTR unsigned char  size(2) Largest target is 64
		 -> readBuffer(BANK1[64]), 

    CDCDataInHandle	PTR void  size(2) Largest target is 48
		 -> NULL(NULL[0]), BDT(BIGRAMl[48]), 

    CDCDataOutHandle	PTR void  size(2) Largest target is 48
		 -> NULL(NULL[0]), BDT(BIGRAMl[48]), 

    pCDCDst.wRom	PTR const unsigned int  size(2) Largest target is 0

    pCDCDst.bRom	PTR const unsigned char  size(2) Largest target is 0

    pCDCDst.wRam	PTR unsigned int  size(2) Largest target is 0

    pCDCDst.bRam	PTR unsigned char  size(2) Largest target is 0

    S2140_POINTER$wRom	PTR const unsigned int  size(2) Largest target is 0

    pCDCSrc.wRom	PTR const unsigned int  size(2) Largest target is 0

    S2140_POINTER$bRom	PTR const unsigned char  size(2) Largest target is 0

    pCDCSrc.bRom	PTR const unsigned char  size(2) Largest target is 0

    S2140_POINTER$wRam	PTR unsigned int  size(2) Largest target is 0

    pCDCSrc.wRam	PTR unsigned int  size(2) Largest target is 0

    S2140_POINTER$bRam	PTR unsigned char  size(2) Largest target is 0

    pCDCSrc.bRam	PTR unsigned char  size(2) Largest target is 0

    USBStdFeatureReqHandler@pUEP	PTR unsigned char  size(2) Largest target is 1
		 -> UEP0(SFR[1]), 

    USBStdFeatureReqHandler@p	PTR struct __BDT size(2) Largest target is 48
		 -> NULL(NULL[0]), BDT(BIGRAMl[48]), 

    USBStdGetStatusHandler@p	PTR struct __BDT size(2) Largest target is 48
		 -> NULL(NULL[0]), BDT(BIGRAMl[48]), 

    pDst	PTR volatile unsigned char  size(2) Largest target is 8
		 -> CtrlTrfData(BIGRAMhl[8]), NULL(NULL[0]), 

    USBConfigureEndpoint@handle	PTR volatile struct __BDT size(2) Largest target is 48
		 -> BDT(BIGRAMl[48]), 

    pBDTEntryEP0OutCurrent	PTR volatile struct __BDT size(2) Largest target is 48
		 -> NULL(NULL[0]), BDT(BIGRAMl[48]), 

    pBDTEntryEP0OutNext	PTR volatile struct __BDT size(2) Largest target is 48
		 -> NULL(NULL[0]), BDT(BIGRAMl[48]), 

    USBTransferOnePacket@data	PTR unsigned char  size(2) Largest target is 64
		 -> cdc_data_tx(BIGRAMhl[64]), cdc_data_rx(BIGRAMhh[64]), NULL(NULL[0]), 

    sp__USBTransferOnePacket	PTR void  size(2) Largest target is 48
		 -> NULL(NULL[0]), BDT(BIGRAMl[48]), 

    USBTransferOnePacket@handle	PTR volatile struct __BDT size(2) Largest target is 48
		 -> NULL(NULL[0]), BDT(BIGRAMl[48]), 

    USBEnableEndpoint@p	PTR unsigned char  size(2) Largest target is 1
		 -> UEP0(SFR[1]), 

    pBDTEntryOut	PTR volatile struct __BDT[3] size(2) Largest target is 48
		 -> NULL(NULL[0]), BDT(BIGRAMl[48]), 

    pBDTEntryIn	PTR volatile struct __BDT[3] size(2) Largest target is 48
		 -> NULL(NULL[0]), BDT(BIGRAMl[48]), 

    S855$pFunc	PTR FTN()void  size(2) Largest target is 1
		 -> Absolute function(), 

    outPipes.pFunc	PTR FTN()void  size(2) Largest target is 1
		 -> Absolute function(), 

    S845$wRam	PTR unsigned int  size(2) Largest target is 0

    outPipes.pDst.wRam	PTR unsigned int  size(2) Largest target is 0

    S845$bRam	PTR unsigned char  size(2) Largest target is 0

    outPipes.pDst.bRam	PTR unsigned char  size(2) Largest target is 0

    S821$wRom	PTR const unsigned int  size(2) Largest target is 0

    inPipes.pSrc.wRom	PTR const unsigned int  size(2) Largest target is 0

    S821$wRam	PTR unsigned int  size(2) Largest target is 0

    inPipes.pSrc.wRam	PTR unsigned int  size(2) Largest target is 0

    S821$bRom	PTR const unsigned char  size(2) Largest target is 0

    inPipes.pSrc.bRom	PTR const unsigned char  size(2) Largest target is 0

    S821$bRam	PTR unsigned char  size(2) Largest target is 0

    inPipes.pSrc.bRam	PTR unsigned char  size(2) Largest target is 0

    sp__memset	PTR void  size(2) Largest target is 48
		 -> USBAlternateInterface(COMRAM[2]), BDT(BIGRAMl[48]), UEP1(SFR[1]), 

    USB_SD_Ptr	const PTR const unsigned char [3] size(2) Largest target is 52
		 -> sd002(CODE[52]), sd001(CODE[52]), sd000(CODE[4]), 

    USB_CD_Ptr	const PTR const unsigned char [1] size(2) Largest target is 67
		 -> configDescriptor1(CODE[67]), 


Critical Paths under _main in COMRAM

    None.

Critical Paths under _low_isr in COMRAM

    None.

Critical Paths under _SYS_InterruptHigh in COMRAM

    _SYS_InterruptHigh->_USBDeviceTasks
    _USBDeviceTasks->_USBCtrlEPService
    i2_USBDeviceInit->i2_memset
    _USBWakeFromSuspend->_USER_USB_CALLBACK_EVENT_HANDLER
    _USBSuspend->_USER_USB_CALLBACK_EVENT_HANDLER
    _USBCtrlEPAllowDataStage->_USBCtrlTrfTxService
    _USBCheckStdRequest->_USBStdFeatureReqHandler
    _USBStdSetCfgHandler->_USER_USB_CALLBACK_EVENT_HANDLER
    _USBStdFeatureReqHandler->_USER_USB_CALLBACK_EVENT_HANDLER
    _APP_LEDUpdateUSBStatus->_LED_Off
    _APP_LEDUpdateUSBStatus->_LED_On
    _CDCInitEP->_USBEnableEndpoint
    _USBEnableEndpoint->_USBConfigureEndpoint
    _USBCtrlTrfOutHandler->_USBCtrlTrfRxService
    _USBCtrlTrfInHandler->_USBCtrlTrfTxService

Critical Paths under _main in BANK0

    None.

Critical Paths under _low_isr in BANK0

    None.

Critical Paths under _SYS_InterruptHigh in BANK0

    None.

Critical Paths under _main in BANK1

    _main->_APP_DeviceCDCBasicDemoTasks
    _USBDeviceInit->_memset
    _SYSTEM_Initialize->_LED_Enable
    _APP_DeviceCDCBasicDemoTasks->_getsUSBUSART
    _getsUSBUSART->_USBTransferOnePacket
    _CDCTxService->_USBTransferOnePacket

Critical Paths under _low_isr in BANK1

    None.

Critical Paths under _SYS_InterruptHigh in BANK1

    None.

Critical Paths under _main in BANK2

    None.

Critical Paths under _low_isr in BANK2

    None.

Critical Paths under _SYS_InterruptHigh in BANK2

    None.

Critical Paths under _main in BANK3

    None.

Critical Paths under _low_isr in BANK3

    None.

Critical Paths under _SYS_InterruptHigh in BANK3

    None.

Critical Paths under _main in BANK4

    None.

Critical Paths under _low_isr in BANK4

    None.

Critical Paths under _SYS_InterruptHigh in BANK4

    None.

Critical Paths under _main in BANK5

    None.

Critical Paths under _low_isr in BANK5

    None.

Critical Paths under _SYS_InterruptHigh in BANK5

    None.

Critical Paths under _main in BANK6

    None.

Critical Paths under _low_isr in BANK6

    None.

Critical Paths under _SYS_InterruptHigh in BANK6

    None.

Critical Paths under _main in BANK7

    None.

Critical Paths under _low_isr in BANK7

    None.

Critical Paths under _SYS_InterruptHigh in BANK7

    None.

Call Graph Tables:

 ---------------------------------------------------------------------------------
 (Depth) Function   	        Calls       Base Space   Used Autos Params    Refs
 ---------------------------------------------------------------------------------
 (0) _main                                                 0     0      0    6798
        _APP_DeviceCDCBasicDemoTasks
                  _SYSTEM_Initialize
                    _USBDeviceAttach
                      _USBDeviceInit
                           _UserInit
 ---------------------------------------------------------------------------------
 (1) _UserInit                                             0     0      0       0
 ---------------------------------------------------------------------------------
 (1) _USBDeviceInit                                        1     1      0    1361
                                              8 BANK1      1     1      0
                             _memset
 ---------------------------------------------------------------------------------
 (2) _memset                                               8     2      6    1070
                                              0 BANK1      8     2      6
 ---------------------------------------------------------------------------------
 (1) _USBDeviceAttach                                      0     0      0       0
 ---------------------------------------------------------------------------------
 (1) _SYSTEM_Initialize                                    1     1      0      62
                                              1 BANK1      1     1      0
                         _LED_Enable
 ---------------------------------------------------------------------------------
 (2) _LED_Enable                                           1     1      0      31
                                              0 BANK1      1     1      0
 ---------------------------------------------------------------------------------
 (1) _APP_DeviceCDCBasicDemoTasks                          3     3      0    5375
                                             13 BANK1      3     3      0
                       _CDCTxService
                       _getsUSBUSART
                        _putUSBUSART
 ---------------------------------------------------------------------------------
 (2) _putUSBUSART                                          3     0      3     408
                                              0 BANK1      3     0      3
 ---------------------------------------------------------------------------------
 (2) _getsUSBUSART                                         6     3      3    2267
                                              7 BANK1      6     3      3
               _USBTransferOnePacket
 ---------------------------------------------------------------------------------
 (2) _CDCTxService                                         5     5      0    2164
                                              7 BANK1      5     5      0
               _USBTransferOnePacket
 ---------------------------------------------------------------------------------
 (3) _USBTransferOnePacket                                 7     3      4    1926
                                              0 BANK1      7     3      4
 ---------------------------------------------------------------------------------
 Estimated maximum stack depth 3
 ---------------------------------------------------------------------------------
 (Depth) Function   	        Calls       Base Space   Used Autos Params    Refs
 ---------------------------------------------------------------------------------
 (4) _low_isr                                             17    17      0       0
                                              0 BANK0     17    17      0
 ---------------------------------------------------------------------------------
 Estimated maximum stack depth 4
 ---------------------------------------------------------------------------------
 (Depth) Function   	        Calls       Base Space   Used Autos Params    Refs
 ---------------------------------------------------------------------------------
 (5) _SYS_InterruptHigh                                   14    14      0   29221
                                             30 COMRAM    14    14      0
                     _USBDeviceTasks
                      i2_putUSBUSART
 ---------------------------------------------------------------------------------
 (6) i2_putUSBUSART                                        3     0      3      96
                                              0 COMRAM     3     0      3
 ---------------------------------------------------------------------------------
 (6) _USBDeviceTasks                                       1     1      0   29125
                                             29 COMRAM     1     1      0
          _USBCtrlEPAllowStatusStage
                   _USBCtrlEPService
                    _USBStallHandler
                         _USBSuspend
                 _USBWakeFromSuspend
    _USER_USB_CALLBACK_EVENT_HANDLER
                    i2_USBDeviceInit
 ---------------------------------------------------------------------------------
 (7) i2_USBDeviceInit                                      1     1      0     610
                                              8 COMRAM     1     1      0
                           i2_memset
 ---------------------------------------------------------------------------------
 (7) _USBWakeFromSuspend                                   0     0      0    3879
    _USER_USB_CALLBACK_EVENT_HANDLER
 ---------------------------------------------------------------------------------
 (7) _USBSuspend                                           0     0      0    3879
    _USER_USB_CALLBACK_EVENT_HANDLER
 ---------------------------------------------------------------------------------
 (7) _USBStallHandler                                      1     1      0       0
                                              0 COMRAM     1     1      0
 ---------------------------------------------------------------------------------
 (7) _USBCtrlEPService                                     3     3      0   16832
                                             26 COMRAM     3     3      0
                _USBCtrlTrfInHandler
               _USBCtrlTrfOutHandler
             _USBCtrlTrfSetupHandler
 ---------------------------------------------------------------------------------
 (8) _USBCtrlTrfSetupHandler                               0     0      0   16535
                 _USBCheckStdRequest
           _USBCtrlEPServiceComplete
    _USER_USB_CALLBACK_EVENT_HANDLER
 ---------------------------------------------------------------------------------
 (9) _USBCtrlEPServiceComplete                             0     0      0      92
            _USBCtrlEPAllowDataStage
          _USBCtrlEPAllowStatusStage
 ---------------------------------------------------------------------------------
 (10) _USBCtrlEPAllowDataStage                             0     0      0      92
                _USBCtrlTrfTxService
 ---------------------------------------------------------------------------------
 (9) _USBCheckStdRequest                                   0     0      0   12564
            _USBStdFeatureReqHandler
                _USBStdGetDscHandler
             _USBStdGetStatusHandler
                _USBStdSetCfgHandler
    _USER_USB_CALLBACK_EVENT_HANDLER
 ---------------------------------------------------------------------------------
 (10) _USBStdSetCfgHandler                                 1     1      0    4377
                                             20 COMRAM     1     1      0
    _USER_USB_CALLBACK_EVENT_HANDLER
                           i2_memset
 ---------------------------------------------------------------------------------
 (8) i2_memset                                             8     2      6     408
                                              0 COMRAM     8     2      6
 ---------------------------------------------------------------------------------
 (10) _USBStdGetStatusHandler                              3     3      0      46
                                              0 COMRAM     3     3      0
 ---------------------------------------------------------------------------------
 (10) _USBStdGetDscHandler                                 2     2      0       0
                                              0 COMRAM     2     2      0
 ---------------------------------------------------------------------------------
 (10) _USBStdFeatureReqHandler                             6     6      0    4262
                                             20 COMRAM     6     6      0
    _USER_USB_CALLBACK_EVENT_HANDLER
 ---------------------------------------------------------------------------------
 (7) _USER_USB_CALLBACK_EVENT_HANDLER                      8     2      6    3879
                                             12 COMRAM     8     2      6
   _APP_DeviceCDCBasicDemoInitialize
             _APP_LEDUpdateUSBStatus
                 _USBCheckCDCRequest
 ---------------------------------------------------------------------------------
 (8) _USBCheckCDCRequest                                   0     0      0       0
 ---------------------------------------------------------------------------------
 (8) _APP_LEDUpdateUSBStatus                               0     0      0      44
                            _LED_Off
                             _LED_On
 ---------------------------------------------------------------------------------
 (9) _LED_On                                               1     1      0      22
                                              0 COMRAM     1     1      0
 ---------------------------------------------------------------------------------
 (9) _LED_Off                                              1     1      0      22
                                              0 COMRAM     1     1      0
 ---------------------------------------------------------------------------------
 (8) _APP_DeviceCDCBasicDemoInitialize                     0     0      0    1143
                          _CDCInitEP
 ---------------------------------------------------------------------------------
 (9) _CDCInitEP                                            0     0      0    1143
                  _USBEnableEndpoint
             i2_USBTransferOnePacket
 ---------------------------------------------------------------------------------
 (10) i2_USBTransferOnePacket                              7     3      4     410
                                              0 COMRAM     7     3      4
 ---------------------------------------------------------------------------------
 (10) _USBEnableEndpoint                                   4     3      1     733
                                              8 COMRAM     4     3      1
               _USBConfigureEndpoint
 ---------------------------------------------------------------------------------
 (11) _USBConfigureEndpoint                                8     7      1     400
                                              0 COMRAM     8     7      1
 ---------------------------------------------------------------------------------
 (8) _USBCtrlTrfOutHandler                                 0     0      0     114
                _USBCtrlTrfRxService
 ---------------------------------------------------------------------------------
 (9) _USBCtrlTrfRxService                                  2     2      0     114
                                              0 COMRAM     2     2      0
          _USBCtrlEPAllowStatusStage
 ---------------------------------------------------------------------------------
 (10) _USBCtrlEPAllowStatusStage                           0     0      0       0
 ---------------------------------------------------------------------------------
 (8) _USBCtrlTrfInHandler                                  1     1      0     115
                                              1 COMRAM     1     1      0
                _USBCtrlTrfTxService
 ---------------------------------------------------------------------------------
 (11) _USBCtrlTrfTxService                                 1     1      0      92
                                              0 COMRAM     1     1      0
 ---------------------------------------------------------------------------------
 Estimated maximum stack depth 11
 ---------------------------------------------------------------------------------

 Call Graph Graphs:

 _main (ROOT)
   _APP_DeviceCDCBasicDemoTasks
     _CDCTxService
       _USBTransferOnePacket
     _getsUSBUSART
       _USBTransferOnePacket
     _putUSBUSART
   _SYSTEM_Initialize
     _LED_Enable
   _USBDeviceAttach
   _USBDeviceInit
     _memset
   _UserInit

 _low_isr (ROOT)

 _SYS_InterruptHigh (ROOT)
   _USBDeviceTasks
     _USBCtrlEPAllowStatusStage
     _USBCtrlEPService
       _USBCtrlTrfInHandler
         _USBCtrlTrfTxService
       _USBCtrlTrfOutHandler
         _USBCtrlTrfRxService
           _USBCtrlEPAllowStatusStage
       _USBCtrlTrfSetupHandler
         _USBCheckStdRequest
           _USBStdFeatureReqHandler
             _USER_USB_CALLBACK_EVENT_HANDLER
               _APP_DeviceCDCBasicDemoInitialize
                 _CDCInitEP
                   _USBEnableEndpoint
                     _USBConfigureEndpoint
                   i2_USBTransferOnePacket
               _APP_LEDUpdateUSBStatus
                 _LED_Off
                 _LED_On
               _USBCheckCDCRequest
           _USBStdGetDscHandler
           _USBStdGetStatusHandler
           _USBStdSetCfgHandler
             _USER_USB_CALLBACK_EVENT_HANDLER
               _APP_DeviceCDCBasicDemoInitialize
                 _CDCInitEP
                   _USBEnableEndpoint
                     _USBConfigureEndpoint
                   i2_USBTransferOnePacket
               _APP_LEDUpdateUSBStatus
                 _LED_Off
                 _LED_On
               _USBCheckCDCRequest
             i2_memset
           _USER_USB_CALLBACK_EVENT_HANDLER
             _APP_DeviceCDCBasicDemoInitialize
               _CDCInitEP
                 _USBEnableEndpoint
                   _USBConfigureEndpoint
                 i2_USBTransferOnePacket
             _APP_LEDUpdateUSBStatus
               _LED_Off
               _LED_On
             _USBCheckCDCRequest
         _USBCtrlEPServiceComplete
           _USBCtrlEPAllowDataStage
             _USBCtrlTrfTxService
           _USBCtrlEPAllowStatusStage
         _USER_USB_CALLBACK_EVENT_HANDLER
           _APP_DeviceCDCBasicDemoInitialize
             _CDCInitEP
               _USBEnableEndpoint
                 _USBConfigureEndpoint
               i2_USBTransferOnePacket
           _APP_LEDUpdateUSBStatus
             _LED_Off
             _LED_On
           _USBCheckCDCRequest
     _USBStallHandler
     _USBSuspend
       _USER_USB_CALLBACK_EVENT_HANDLER
         _APP_DeviceCDCBasicDemoInitialize
           _CDCInitEP
             _USBEnableEndpoint
               _USBConfigureEndpoint
             i2_USBTransferOnePacket
         _APP_LEDUpdateUSBStatus
           _LED_Off
           _LED_On
         _USBCheckCDCRequest
     _USBWakeFromSuspend
       _USER_USB_CALLBACK_EVENT_HANDLER
         _APP_DeviceCDCBasicDemoInitialize
           _CDCInitEP
             _USBEnableEndpoint
               _USBConfigureEndpoint
             i2_USBTransferOnePacket
         _APP_LEDUpdateUSBStatus
           _LED_Off
           _LED_On
         _USBCheckCDCRequest
     _USER_USB_CALLBACK_EVENT_HANDLER
       _APP_DeviceCDCBasicDemoInitialize
         _CDCInitEP
           _USBEnableEndpoint
             _USBConfigureEndpoint
           i2_USBTransferOnePacket
       _APP_LEDUpdateUSBStatus
         _LED_Off
         _LED_On
       _USBCheckCDCRequest
     i2_USBDeviceInit
       i2_memset
   i2_putUSBUSART

 Address spaces:
Name               Size   Autos  Total    Cost      Usage
BIGRAMl            3FF      0       0      23        0.0%
BIGRAMhh           280      0       0      21        0.0%
EEDATA             100      0       0       0        0.0%
BITBANK7           100      0       0      19        0.0%
BANK7              100      0       0      20        0.0%
BITBANK6           100      0       0      17        0.0%
BANK6              100      0       0      18        0.0%
BITBANK3           100      0       0      10        0.0%
BANK3              100      0       0      11        0.0%
BITBANK2           100      0       0       8        0.0%
BANK2              100      0       0       9        0.0%
BITBANK1           100      0       0       6        0.0%
BANK1              100     10      50       7       31.3%
BIGRAMhl            C0      0       0      22        0.0%
BITBANK4            C0      0       0      12        0.0%
BANK4               C0      0       0      13        0.0%
BITBANK0            A0      0       0       4        0.0%
BANK0               A0     11      94       5       92.5%
BITBANK5            80      0       0      14        0.0%
BANK5               80      0       0      15        0.0%
BITCOMRAM           5E      0       0       0        0.0%
COMRAM              5E     2C      53       1       88.3%
BITSFR               0      0       0      40        0.0%
SFR                  0      0       0      40        0.0%
STACK                0      0       0       2        0.0%
NULL                 0      0       0       0        0.0%
ABS                  0      0     137      16        0.0%
DATA                 0      0     137       3        0.0%
CODE                 0      0       0       0        0.0%


Microchip Technology PIC18 Macro Assembler V1.36 build -262312587 
Symbol Table                                                                                   Wed Mar 08 12:38:33 2017

                               _USB_SD_Ptr 1101                                ?_LED_Enable 0001  
                                       _ad 00E0                                         bsr 000FE0  
                            _USBDeviceInit 1734                         __size_of_CDCInitEP 0068  
     USER_USB_CALLBACK_EVENT_HANDLER@event 000D       USER_USB_CALLBACK_EVENT_HANDLER@pdata 000F  
                                      l132 1602                                        l141 1682  
                                      l134 1606                                        l135 1630  
                                      l137 1642                                        l138 1672  
                                      l226 2D54                                        l139 167A  
                                      l228 2D58                __end_of_USBStdGetDscHandler 19C4  
                                      l423 2CC2                                        l424 2CC0  
                                      l362 17A2                                        l720 14AE  
                                      l725 150A                                        _BDT 000400  
                                      _UIE 000F69                                        _UIR 000F68  
                   _APP_LEDUpdateUSBStatus 2998                                 _USBSuspend 2D26  
                     USBStdSetCfgHandler@i 0015                                        prod 000FF3  
                                      wreg 000FE8                             _USBDeviceTasks 1AFA  
                           _USBDeviceState 003F                      ??_USBCtrlTrfRxService 0001  
                 __size_ofi2_USBDeviceInit 0136                             ??_getsUSBUSART 014A  
                 USBEnableEndpoint@options 0009                            __end_of_LED_Off 2E26  
               USBConfigureEndpoint@handle 0007                                       l4311 148E  
                                     l4321 14BA                                       l4243 2142  
                                     l4235 210E                                       l4315 149E  
                                     l4341 1536                                       l4333 150E  
                                     l4309 1484                                       l4413 1782  
                                     l4255 21A8                                       l4351 1566  
                                     l4327 14F2                                       l4361 1594  
                                     l4281 1F5C                                       l4273 2D96  
                                     l4513 1648                                       l4505 1638  
                                     l4441 17EE                                       l4425 17AE  
                                     l4433 17C6                                       l4409 1778  
                                     l4371 15D4                                       l4291 1FA6  
                                     l4283 1F66                                       l4349 155A  
                                     l4509 163E                                       l4525 16BA  
                                     l4381 2C0E                                       l4437 17E4  
                                     l4367 15AA                                       l4359 158A  
                                     l4295 1FD6                                       l4527 1700  
                                     l4535 172E                                       l4447 1854  
                                     l4369 15B0                                       l4289 1F9E  
                                     l4529 1704                                       l4377 2D5C  
                                     l4393 2DCE                                       l4385 2C20  
                                     l4299 2008                                       l4547 2C96  
                                     l4389 2DC6                                       l4495 1612  
                                     l4499 1618                                       u3440 1F4C  
                                     u3448 1F50                                       u3490 1474  
                                     u3498 1478                      ??_USBCtrlTrfTxService 0001  
                                     _UCFG 000F6F                                       _UEP0 000F70  
                                     _UEP1 000F71                                       _UEIE 000F6B  
                                     _UEIR 000F6A                                       _UCON 000F6D  
                          _CDCDataInHandle 0090     USBStdFeatureReqHandler@current_ep_data 0018  
                                     _pDst 0037                                       _main 2C6A  
                 ??i2_USBTransferOnePacket 0005                                       fsr0h 000FEA  
                                     fsr1h 000FE2                                       fsr0l 000FE9  
                                     fsr2h 000FDA                                       indf1 000FE7  
                              _BaudRateGen 002D                                       fsr1l 000FE1  
                                     indf2 000FDF                                       fsr2l 000FD9  
                          _USBDeviceAttach 2C9C                                       btemp 0054  
                                     pclat 000FFA                                       prodh 000FF4  
                                     prodl 000FF3                                       start 10A6  
               __end_of_USBCheckStdRequest 1F24                     ??_USBCtrlTrfOutHandler 0003  
                             ___param_bank 000010                  ??_USBStdFeatureReqHandler 0015  
                    __end_ofi2_putUSBUSART 2DC0                   ??_USBStdGetStatusHandler 0001  
                           ?_USBDeviceInit 0001                                _writeBuffer 0098  
                                    ?_main 0001          __size_of_USBCtrlEPServiceComplete 00F4  
                                    _CMCON 000FB4                                      _T0CON 000FD5  
                   __end_of_USBDeviceTasks 1C26                  ?_USBCtrlEPServiceComplete 0001  
                                    i2l121 2778                                      i2l202 2E08  
                                    i2l204 2E0C                                      i2l125 279C  
                                    i2l511 25CE                                      i2l194 2DE6  
                                    i2l514 265C                                      i2l362 1A22  
                                    i2l515 25DE                                      i2l196 2DEA  
                                    i2l516 25E4                                      i2l524 2B8C  
                                    i2l374 1B22                                      i2l448 1DB8  
                                    i2l384 1BAC                                      i2l561 25B0  
                                    i2l609 13BC                                      i2l385 1C22  
                                    i2l386 1BBC                                      i2l590 11F6  
                                    i2l575 1E42                                      i2l584 1EA6  
                                    i2l666 22FA                                      i2l668 233E  
                                    _UADDR 000F6E                                      _TMR0H 000FD7  
                                    _TMR0L 000FD6                                      _PORTA 000F80  
                                    _PORTB 000F81                                      _TRISA 000F92  
                                    _TRISB 000F93                                      _USTAT 000F6C  
       __size_of_USBCtrlEPAllowStatusStage 00C4            __end_of_USBCtrlEPAllowDataStage 2876  
                                    _sd000 11C6                                      _sd001 114C  
                                    _sd002 1180                                 i2memset@p1 0001  
                          __end_of_low_isr 10A6                                      tablat 000FF5  
                      __size_of_LED_Enable 0026                                      plusw2 000FDB  
                        __end_of_CDCInitEP 2AF2                                      status 000FD8  
                         __end_ofi2_memset 2D26                            putUSBUSART@data 0140  
             __size_of_USBStdSetCfgHandler 00E2                            __initialization 2C38  
                             __end_of_main 2C9C                      _control_signal_bitmap 0044  
                __size_of_USBCtrlEPService 00CE                                     ??_main 0150  
                            __activetblptr 000002                            ?_USBDeviceTasks 0001  
                              ?_USBSuspend 0001                                  ??_LED_Off 0001  
                             _cdc_mem_type 0094                           __end_of_UserInit 2C04  
                  __end_of_USBDeviceAttach 2CCC                                     _ADCON0 000FC2  
                                   _ADCON1 000FC1                                     _ADCON2 000FC0  
                         _CDCDataOutHandle 0092                          _getsUSBUSART$2513 014B  
                                   _ADRESH 000FC4                                     _ADRESL 000FC3  
                          getsUSBUSART@len 0149                     SYSTEM_Initialize@state 0141  
                    __size_of_CDCTxService 0188                                     i2l3101 2826  
                                   i2l3015 21EA                                     i2l3121 2050  
                                   i2l3105 2842                                     i2l3019 21F4  
                                   i2l3203 2644                                     i2l3051 2D04  
                                   i2l3131 2084                                     i2l3029 2220  
                                   i2l3037 2256                                     i2l3221 11F2  
                                   i2l3125 2058                                     i2l4021 1BA2  
                                   i2l4013 1B7E                                     i2l3039 225E  
                                   i2l3047 2294                                     i2l3071 2482  
                                   i2l3055 2D14                                     i2l4007 1B74  
                                   _LED_On 2DE2                                     i2l3241 12B0  
                                   i2l4041 1BE2                                     i2l3243 12B2  
                                   i2l3235 126C                                     i2l3155 189A  
                                   i2l3147 20CE                                     i2l3411 1E80  
                                   i2l3307 1D62                                     i2l4027 1BB4  
                                   i2l3181 19AC                                     i2l3421 1EC2  
                                   i2l3511 2534                                     i2l3263 1356  
                                   i2l3247 12CE                                     i2l3175 199C  
                                   i2l3167 1942                                     i2l3159 18B2  
                                   i2l3407 1E74                                     i2l3327 1DDE  
                                   i2l4047 1C02                                     i2l3361 1C7A  
                                   i2l3273 139C                                     i2l3257 1320  
                                   i2l3177 19A4                                     i2l3169 194A  
                                   i2l3193 2604                                     i2l3409 1E7A  
                                   i2l3425 1EE0                                     i2l4049 1C1E  
                                   i2l4065 2DBC                                     i2l3523 2576  
                                   i2l3355 1C56                                     i2l3291 142A  
                                   i2l3283 13D8                                     i2l3275 13A8  
                                   i2l3259 133C                                     i2l3509 2530  
                                   i2l3373 1CD8                                     i2l2901 29A4  
                                   i2l3535 25BA                                     i2l2823 28D8  
                                   i2l3711 23BC                                     i2l3529 2596  
                                   i2l3377 1CF2                                     i2l2833 2BA0  
                                   i2l2921 29FE                                     i2l2913 29DC  
                                   i2l2905 29B4                                     i2l3289 141E  
                                   i2l4089 2798                                     i2l3395 1E4C  
                                   i2l3723 240A                                     i2l3715 23C4  
                                   i2l2837 2BAE                                     i2l2853 26BA  
                                   i2l2845 2690                                     i2l2917 29EC  
                                   i2l2909 29C6                                     i2l3397 1E52  
                                   i2l3495 2B48                                     i2l3487 2B00  
                                   i2l2927 2A08                                     i2l4607 2A50  
                                   i2l3399 1E58                                     i2l3727 2424  
                                   i2l3671 2CF2                                     i2l3751 1A06  
                                   i2l2865 2716                                     i2l2881 2DEE  
                                   i2l2929 2A12                                     i2l4609 2A84  
                                   i2l3729 242A                                     i2l3673 2CF4  
                                   i2l2875 2E10                                     i2l2971 2320  
                                   i2l2963 22E8                                     i2l2955 22C8  
                                   i2l3763 1A2E                                     i2l3771 1A46  
                                   i2l3747 19FE                                     i2l2991 2A32  
                                   i2l2983 2A1A                                     i2l3695 2B8A  
                                   i2l3775 1A62                                     _INTCON 000FF2  
                                   i2l2985 2A20                                     i2l3785 1AC6  
                                   i2l3961 1B0E                                     i2l2979 2348  
                                   i2l2987 2A26                                     i2l2995 2A38  
                                   i2l3779 1A6A                                     i2l2989 2A2C  
                                   i2l3991 1B40                                     i2l3983 1B34  
                                   i2l3969 1B1A                                     i2l3997 1B64  
                            CDCTxService@i 014A                   i2USBTransferOnePacket@ep 0005  
                        ??i2_USBDeviceInit 0009            __size_ofi2_USBTransferOnePacket 00BA  
                        _shortPacketStatus 0046                            USBDeviceTasks@i 001E  
              USBStdFeatureReqHandler@pUEP 0016                   USBTransferOnePacket@data 0141  
               USBCtrlTrfInHandler@lastDTS 0002                            ??_USBDeviceInit 0148  
                             ?_putUSBUSART 0140                       __end_of_getsUSBUSART 200E  
                        _USBEnableEndpoint 2B90            __size_of_USBStdGetStatusHandler 00BA  
                                   _memset 2C04                                     clear_0 2C3E  
                                   clear_1 2C4A                                     clear_2 2C56  
                       ?_USBEnableEndpoint 0009              __size_of_USBTransferOnePacket 00D8  
                             _CDCTxService 1450                        i2putUSBUSART@length 0003  
                             __mediumconst 0000                                  ??_low_isr 00E3  
                                   tblptrh 000FF7                                     tblptrl 000FF6  
                                   tblptru 000FF8                        ??_USBEnableEndpoint 000A  
                              _CtrlTrfData 000438               ?_APP_DeviceCDCBasicDemoTasks 0001  
                     _controlTransferState 0043                          _SYSTEM_Initialize 2DC0  
                               __accesstop 0060                    __end_of__initialization 2C5C  
                       ?_SYSTEM_Initialize 0001                              ___rparam_used 000001  
                 __size_of_USBStallHandler 0042                        __size_of_USBSuspend 0028  
                           __pcstackCOMRAM 0001                  __end_of_USBEnableEndpoint 2BCC  
                            __end_of_sd000 11CA                              __end_of_sd001 1180  
                            __end_of_sd002 11B4                        ??_SYSTEM_Initialize 0141  
                                LED_On@led 0001           __size_of_USBCtrlEPAllowDataStage 009E  
                             ??_LED_Enable 0140              __size_of_USBConfigureEndpoint 0094  
              __end_of_USBCtrlTrfInHandler 25C0                    ?_APP_LEDUpdateUSBStatus 0001  
                   i2_USBTransferOnePacket 267A                          _CDCTxService$2561 0148  
                               _cdc_notice 0060                                  ?i2_memset 0001  
                               _cdc_rx_len 0095                                 _cdc_tx_len 0097  
                 ??_USBCtrlTrfSetupHandler 001B                           ?_USBDeviceAttach 0001  
                __end_of_SYSTEM_Initialize 2DE2                     _USBStdGetStatusHandler 25C0  
                               __pbssBANK0 0060                                 __pbssBANK1 0100  
                                  ?_LED_On 0001              ??_APP_DeviceCDCBasicDemoTasks 014D  
 __end_of_APP_DeviceCDCBasicDemoInitialize 2E48  __size_of_APP_DeviceCDCBasicDemoInitialize 0022  
       ??_APP_DeviceCDCBasicDemoInitialize 000D          ?_APP_DeviceCDCBasicDemoInitialize 0001  
         _APP_DeviceCDCBasicDemoInitialize 2E26                         __end_of_LED_Enable 2D74  
              __size_of_USBWakeFromSuspend 002E                                _pBDTEntryIn 0078  
         __end_of_USBCtrlEPServiceComplete 1E32                __size_of_USBCheckCDCRequest 00D0  
                     USBCtrlTrfRxService@i 0001                              LED_Enable@led 0140  
           __end_of_APP_LEDUpdateUSBStatus 2A18                                  ?_UserInit 0001  
             APP_DeviceCDCBasicDemoTasks@i 014F                                    ?_memset 0140  
                               _device_dsc 11B4                           _USBCtrlEPService 236C  
                               _ep_data_in 0084                __end_of_USBCtrlTrfRxService 1D3E  
                       _USBCheckStdRequest 1E32                          _configDescriptor1 1109  
                                  _LED_Off 2E04                                 ??i2_memset 0007  
              __end_of_USBCtrlTrfTxService 229C                        _USBStdSetCfgHandler 200E  
                      ?_USBCheckStdRequest 0001               __size_of_USBStdGetDscHandler 013C  
                                  _UIEbits 000F69                                    _UIRbits 000F68  
                          __size_of_LED_On 0022                              _cdc_trf_state 0096  
           APP_LEDUpdateUSBStatus@ledCount 0031                                    _pCDCDst 008A  
                                  _pCDCSrc 008D                      __size_of_getsUSBUSART 00EA  
                                  __Hparam 0000                       ?_USBStdSetCfgHandler 0001  
                                _CDCInitEP 2A8A                                    __Lparam 0000  
               __size_of_USBEnableEndpoint 003C                                 _readBuffer 0100  
                     ??_USBCheckStdRequest 001B              __size_of_USBCtrlTrfOutHandler 005C  
                         ??_USBDeviceTasks 001E                          ??_USBStallHandler 0001  
                               ??_UserInit 0140                               __psmallconst 1100  
     __size_of_APP_DeviceCDCBasicDemoTasks 015C                       __size_of_putUSBUSART 0026  
                                  __pcinit 2C38                         getsUSBUSART@buffer 0147  
                          __size_of_memset 0034                  __end_of_configDescriptor1 114C  
                                  __ramtop 0800                                    __ptext0 2C6A  
                                  __ptext1 2BCC                                    __ptext2 1734  
                                  __ptext3 2C04                                    __ptext4 2C9C  
                                  __ptext5 2DC0                                    __ptext6 2D4E  
                                  __ptext7 15D8                                    __ptext8 2D74  
                                  __ptext9 1F24                                    _inPipes 0072  
              _USBDeferOUTDataStagePackets 003D                                  _T0CONbits 000FD5  
                             ??_USBSuspend 0015                                    _low_isr 1018  
                          i2_USBDeviceInit 19C4                           i2USBDeviceInit@i 0009  
                       __end_of_USB_CD_Ptr 1109                 __size_of_SYSTEM_Initialize 0022  
          __size_of_USBCtrlTrfSetupHandler 008E                             __pintcode_body 2734  
                     end_of_initialization 2C5C                               _getsUSBUSART 1F24  
                   __size_ofi2_putUSBUSART 0026                         __end_of_USB_SD_Ptr 1107  
                      _pBDTEntryEP0OutNext 0035                                    memset@c 0142  
                                  memset@n 0144                                    memset@p 0146  
                            __Lmediumconst 0000                                    int_func 2734  
          _dummy_encapsulated_cmd_response 00D8                   ?_USBStdFeatureReqHandler 0001  
                    ??_USBStdSetCfgHandler 0015                                 ?_CDCInitEP 0001  
                       __end_of_USBSuspend 2D4E                    _USBCtrlEPAllowDataStage 27D8  
                                  postdec2 000FDD                                    postinc0 000FEE  
                                  postinc2 000FDE                   _USBCtrlEPServiceComplete 1D3E  
               _USBStatusStageEnabledFlag1 0040                 _USBStatusStageEnabledFlag2 0041  
                       USBEnableEndpoint@p 000A                                  _PORTBbits 000F81  
                                _TRISBbits 000F93                         _BothEP0OutUOWNsSet 0039  
                USBConfigureEndpoint@EPNum 0006                 ?_USBCtrlEPAllowStatusStage 0001  
      USER_USB_CALLBACK_EVENT_HANDLER@size 0011    APP_DeviceCDCBasicDemoTasks@numBytesRead 014E  
                                _USTATcopy 0053               __end_of_USBTransferOnePacket 21C8  
                           __end_of_LED_On 2E04                          putUSBUSART@length 0142  
                   _USBCtrlTrfSetupHandler 290A                    ?i2_USBTransferOnePacket 0001  
                    __end_of_USBDeviceInit 1888                              i2_putUSBUSART 2D9A  
                               LED_Off@led 0001                    __end_ofi2_USBDeviceInit 1AFA  
                                i2memset@c 0003                                  i2memset@n 0005  
                                i2memset@p 0007                             __end_of_memset 2C38  
                        _USBBusIsSuspended 003B                        start_initialization 2C38  
                  ?_USBStdGetStatusHandler 0001              USBCtrlTrfRxService@byteToRead 0002  
                              _cdc_data_rx 000540                                _cdc_data_tx 000500  
                        __size_ofi2_memset 002C               __end_of_USBConfigureEndpoint 290A  
          __end_of_USBStdFeatureReqHandler 1450                                   ??_LED_On 0001  
        __end_of_USBCtrlEPAllowStatusStage 24FE                   __end_of_USBCtrlEPService 243A  
                ??_USBCtrlEPAllowDataStage 0002                                ??_CDCInitEP 000D  
                           USBDeviceInit@i 0148                     _pBDTEntryEP0OutCurrent 0033  
                  USBTransferOnePacket@dir 0140                    USBTransferOnePacket@len 0143  
           __end_ofi2_USBTransferOnePacket 2734                             ?i2_putUSBUSART 0001  
                      _USBStdGetDscHandler 1888                                   ??_memset 0146  
                        __size_of_UserInit 0038                     _USBActiveConfiguration 0052  
           __end_of_USBStdGetStatusHandler 267A                                   ?_LED_Off 0001  
                              __pbssCOMRAM 002D                              __pcstackBANK0 00E3  
                            __pcstackBANK1 0140               __size_of_USBCtrlTrfInHandler 00C2  
                     ?_USBStdGetDscHandler 0001                 __end_of_USBWakeFromSuspend 2CFA  
                          _USBStallHandler 2B4E                               _pBDTEntryOut 007E  
               __end_of_USBCheckCDCRequest 236C                   __size_of_USBDeviceAttach 0030  
                                __pintcode 1008                                __pintcodelo 1018  
                         ?i2_USBDeviceInit 0001                       _USBTransferOnePacket 20F0  
                              __smallconst 1100                                   ?_low_isr 0001  
             __end_of_USBCtrlTrfOutHandler 2B4E                      ??_USBStdGetDscHandler 0001  
                              _ep_data_out 0087        __end_of_APP_DeviceCDCBasicDemoTasks 1734  
              _APP_DeviceCDCBasicDemoTasks 15D8               __size_of_USBCtrlTrfRxService 0118  
            USBConfigureEndpoint@direction 0001               __size_of_USBCtrlTrfTxService 00D4  
                                 _LATBbits 000F8A                 ??_USBCtrlEPServiceComplete 0002  
                                 _IPR2bits 000FA2                                   _PIE1bits 000F9D  
                                 _PIE2bits 000FA0                                   i2u210_40 1990  
                                 i2u210_47 1986                                   i2u207_40 1908  
                                 i2u207_47 18FE                                   i2u208_40 193C  
                                 i2u208_47 1932                                   i2u191_40 2248  
                                 i2u191_47 223E                                   i2u193_40 2286  
                                 _PIR1bits 000F9E                                   i2u193_47 227C  
                                 i2u179_40 29D2                                   _PIR2bits 000FA1  
                          ??i2_putUSBUSART 0004                  USBCtrlEPService@setup_cnt 001D  
                                 _RCONbits 000FD0                              ??_putUSBUSART 0143  
                                 _UEP0bits 000F70                 _USBDeferINDataStagePackets 003C  
                                _timerHigh 0047                __size_of_USBCheckStdRequest 00F2  
                                 _UCONbits 000F6D                       _USBConfigureEndpoint 2876  
         __size_of_USBStdFeatureReqHandler 0284                                 _ADCON0bits 000FC2  
                    ?_USBTransferOnePacket 0140                          _SYS_InterruptHigh 1008  
                            ?_CDCTxService 0001                               _RemoteWakeup 003A  
                                 i2_memset 2CFA                           __size_of_LED_Off 0022  
                       ?_SYS_InterruptHigh 0001                    __end_of_USBStallHandler 2B90  
              ??_USBCtrlEPAllowStatusStage 0001                __end_of_USBStdSetCfgHandler 20F0  
                      ??_SYS_InterruptHigh 001F                         __end_of_device_dsc 11C6  
                 ??_APP_LEDUpdateUSBStatus 0002                    ?_USBCtrlTrfSetupHandler 0001  
                  USBStdGetStatusHandler@p 0002                                   __Hrparam 0000  
                                 __Lrparam 0000                     USBTransferOnePacket@ep 0144  
                                 _SetupPkt 000430                          i2putUSBUSART@data 0001  
                    ?_USBConfigureEndpoint 0001                          ??_USBDeviceAttach 0140  
                                 _UserInit 2BCC                  __end_of_SYS_InterruptHigh 27D8  
                      __end_of_putUSBUSART 2D9A                                _line_coding 0049  
                           ??_CDCTxService 0147                    __size_of_USBDeviceTasks 012C  
                         __size_of_low_isr 008E                                   __ptext10 1450  
                                 __ptext11 20F0                                   __ptext20 236C  
                                 __ptext21 290A                                   __ptext30 2A18  
                                 __ptext22 1D3E                                   __ptext14 2D9A  
                                 __ptext31 229C                                   __ptext23 27D8  
                                 __ptext15 1AFA                                   __ptext40 2AF2  
                                 __ptext32 2998                                   __ptext24 1E32  
                                 __ptext16 19C4                                   __ptext41 1C26  
                                 __ptext33 2DE2                                   __ptext25 200E  
                                 __ptext17 2CCC                                   __ptext42 243A  
                                 __ptext34 2E04                                   __ptext26 2CFA  
                                 __ptext18 2D26                                   __ptext43 24FE  
                                 __ptext35 2E26                                   __ptext27 25C0  
                                 __ptext19 2B4E                                   __ptext44 21C8  
                                 __ptext36 2A8A                                   __ptext28 1888  
                                 __ptext37 267A                                   __ptext29 11CC  
                                 __ptext38 2B90                                   __ptext39 2876  
           __end_of_USBCtrlTrfSetupHandler 2998                              __size_of_main 0032  
                        ?_USBCtrlEPService 0001                         ??_USBCtrlEPService 001B  
                      _USBCtrlTrfInHandler 24FE                                   _timerLow 0048  
                                 _outPipes 006A                       _USBCtrlTrfOutHandler 2AF2  
                                 int$flags 0054                  _USBCtrlEPAllowStatusStage 243A  
                               _LED_Enable 2D4E                     ??_USBTransferOnePacket 0144  
                _USBDeferStatusStagePacket 003E                   CDCTxService@byte_to_send 014B  
                               _INTCONbits 000FF2                       ?_USBCtrlTrfInHandler 0001  
            USBCtrlTrfTxService@byteToSend 0001                                   memset@p1 0140  
                         ?_USBStallHandler 0001                   USBStdFeatureReqHandler@p 0019  
                                 intlevel1 0000                                   intlevel2 0000  
                   __size_of_USBDeviceInit 0154    __end_of_USER_USB_CALLBACK_EVENT_HANDLER 2A8A  
 __size_of_USER_USB_CALLBACK_EVENT_HANDLER 0072          ??_USER_USB_CALLBACK_EVENT_HANDLER 0013  
         ?_USER_USB_CALLBACK_EVENT_HANDLER 000D            _USER_USB_CALLBACK_EVENT_HANDLER 2A18  
             i2USBTransferOnePacket@handle 0006            __size_of_APP_LEDUpdateUSBStatus 0080  
               i2USBTransferOnePacket@data 0002                     ??_USBConfigureEndpoint 0002  
                    ?_USBCtrlTrfOutHandler 0001                                _putUSBUSART 2D74  
                      _USBCtrlTrfRxService 1C26                         _USBWakeFromSuspend 2CCC  
                  _USBStdFeatureReqHandler 11CC                         _USBCheckCDCRequest 229C  
                      _USBCtrlTrfTxService 21C8                 __size_of_SYS_InterruptHigh 17D0  
                      ?_USBWakeFromSuspend 0001                      ??_USBCtrlTrfInHandler 0002  
                    _USBAlternateInterface 0050                        ?_USBCheckCDCRequest 0001  
                i2USBTransferOnePacket@dir 0001                  i2USBTransferOnePacket@len 0004  
                      USBEnableEndpoint@ep 000C                            _endpoint_number 0045  
                     ?_USBCtrlTrfRxService 0001                              ?_getsUSBUSART 0147  
                 ?_USBCtrlEPAllowDataStage 0001                       ?_USBCtrlTrfTxService 0001  
             _USBStatusStageTimeoutCounter 0042                       ??_USBWakeFromSuspend 0015  
               USBTransferOnePacket@handle 0145                       __end_of_CDCTxService 15D8  
                     ??_USBCheckCDCRequest 0001                                 _USB_CD_Ptr 1107  
